ARM GAS  C:\Users\Moses\AppData\Local\Temp\ccwg78q7.s 			page 1


   1              		.cpu cortex-m0
   2              		.fpu softvfp
   3              		.eabi_attribute 20, 1
   4              		.eabi_attribute 21, 1
   5              		.eabi_attribute 23, 3
   6              		.eabi_attribute 24, 1
   7              		.eabi_attribute 25, 1
   8              		.eabi_attribute 26, 1
   9              		.eabi_attribute 30, 1
  10              		.eabi_attribute 34, 0
  11              		.eabi_attribute 18, 4
  12              		.code	16
  13              		.file	"Counter_1.c"
  14              		.text
  15              	.Ltext0:
  16              		.cfi_sections	.debug_frame
  17              		.section	.text.Counter_1_Enable,"ax",%progbits
  18              		.align	2
  19              		.global	Counter_1_Enable
  20              		.code	16
  21              		.thumb_func
  22              		.type	Counter_1_Enable, %function
  23              	Counter_1_Enable:
  24              	.LFB1:
  25              		.file 1 ".\\Generated_Source\\PSoC4\\Counter_1.c"
   1:.\Generated_Source\PSoC4/Counter_1.c **** /*******************************************************************************
   2:.\Generated_Source\PSoC4/Counter_1.c **** * File Name: Counter_1.c  
   3:.\Generated_Source\PSoC4/Counter_1.c **** * Version 3.0
   4:.\Generated_Source\PSoC4/Counter_1.c **** *
   5:.\Generated_Source\PSoC4/Counter_1.c **** *  Description:
   6:.\Generated_Source\PSoC4/Counter_1.c **** *     The Counter component consists of a 8, 16, 24 or 32-bit counter with
   7:.\Generated_Source\PSoC4/Counter_1.c **** *     a selectable period between 2 and 2^Width - 1.  
   8:.\Generated_Source\PSoC4/Counter_1.c **** *
   9:.\Generated_Source\PSoC4/Counter_1.c **** *   Note:
  10:.\Generated_Source\PSoC4/Counter_1.c **** *     None
  11:.\Generated_Source\PSoC4/Counter_1.c **** *
  12:.\Generated_Source\PSoC4/Counter_1.c **** ********************************************************************************
  13:.\Generated_Source\PSoC4/Counter_1.c **** * Copyright 2008-2012, Cypress Semiconductor Corporation.  All rights reserved.
  14:.\Generated_Source\PSoC4/Counter_1.c **** * You may use this file only in accordance with the license, terms, conditions, 
  15:.\Generated_Source\PSoC4/Counter_1.c **** * disclaimers, and limitations in the end user license agreement accompanying 
  16:.\Generated_Source\PSoC4/Counter_1.c **** * the software package with which this file was provided.
  17:.\Generated_Source\PSoC4/Counter_1.c **** *******************************************************************************/
  18:.\Generated_Source\PSoC4/Counter_1.c **** 
  19:.\Generated_Source\PSoC4/Counter_1.c **** #include "Counter_1.h"
  20:.\Generated_Source\PSoC4/Counter_1.c **** 
  21:.\Generated_Source\PSoC4/Counter_1.c **** uint8 Counter_1_initVar = 0u;
  22:.\Generated_Source\PSoC4/Counter_1.c **** 
  23:.\Generated_Source\PSoC4/Counter_1.c **** 
  24:.\Generated_Source\PSoC4/Counter_1.c **** /*******************************************************************************
  25:.\Generated_Source\PSoC4/Counter_1.c **** * Function Name: Counter_1_Init
  26:.\Generated_Source\PSoC4/Counter_1.c **** ********************************************************************************
  27:.\Generated_Source\PSoC4/Counter_1.c **** * Summary:
  28:.\Generated_Source\PSoC4/Counter_1.c **** *     Initialize to the schematic state
  29:.\Generated_Source\PSoC4/Counter_1.c **** * 
  30:.\Generated_Source\PSoC4/Counter_1.c **** * Parameters:  
  31:.\Generated_Source\PSoC4/Counter_1.c **** *  void  
  32:.\Generated_Source\PSoC4/Counter_1.c **** *
ARM GAS  C:\Users\Moses\AppData\Local\Temp\ccwg78q7.s 			page 2


  33:.\Generated_Source\PSoC4/Counter_1.c **** * Return: 
  34:.\Generated_Source\PSoC4/Counter_1.c **** *  void
  35:.\Generated_Source\PSoC4/Counter_1.c **** *
  36:.\Generated_Source\PSoC4/Counter_1.c **** *******************************************************************************/
  37:.\Generated_Source\PSoC4/Counter_1.c **** void Counter_1_Init(void) 
  38:.\Generated_Source\PSoC4/Counter_1.c **** {
  39:.\Generated_Source\PSoC4/Counter_1.c ****         #if (!Counter_1_UsingFixedFunction && !Counter_1_ControlRegRemoved)
  40:.\Generated_Source\PSoC4/Counter_1.c ****             uint8 ctrl;
  41:.\Generated_Source\PSoC4/Counter_1.c ****         #endif /* (!Counter_1_UsingFixedFunction && !Counter_1_ControlRegRemoved) */
  42:.\Generated_Source\PSoC4/Counter_1.c ****         
  43:.\Generated_Source\PSoC4/Counter_1.c ****         #if(!Counter_1_UsingFixedFunction) 
  44:.\Generated_Source\PSoC4/Counter_1.c ****             /* Interrupt State Backup for Critical Region*/
  45:.\Generated_Source\PSoC4/Counter_1.c ****             uint8 Counter_1_interruptState;
  46:.\Generated_Source\PSoC4/Counter_1.c ****         #endif /* (!Counter_1_UsingFixedFunction) */
  47:.\Generated_Source\PSoC4/Counter_1.c ****         
  48:.\Generated_Source\PSoC4/Counter_1.c ****         #if (Counter_1_UsingFixedFunction)
  49:.\Generated_Source\PSoC4/Counter_1.c ****             /* Clear all bits but the enable bit (if it's already set for Timer operation */
  50:.\Generated_Source\PSoC4/Counter_1.c ****             Counter_1_CONTROL &= Counter_1_CTRL_ENABLE;
  51:.\Generated_Source\PSoC4/Counter_1.c ****             
  52:.\Generated_Source\PSoC4/Counter_1.c ****             /* Clear the mode bits for continuous run mode */
  53:.\Generated_Source\PSoC4/Counter_1.c ****             #if (CY_PSOC5A)
  54:.\Generated_Source\PSoC4/Counter_1.c ****                 Counter_1_CONTROL2 &= ((uint8)(~Counter_1_CTRL_MODE_MASK));
  55:.\Generated_Source\PSoC4/Counter_1.c ****             #endif /* (CY_PSOC5A) */
  56:.\Generated_Source\PSoC4/Counter_1.c ****             #if (CY_PSOC3 || CY_PSOC5LP)
  57:.\Generated_Source\PSoC4/Counter_1.c ****                 Counter_1_CONTROL3 &= ((uint8)(~Counter_1_CTRL_MODE_MASK));                
  58:.\Generated_Source\PSoC4/Counter_1.c ****             #endif /* (CY_PSOC3 || CY_PSOC5LP) */
  59:.\Generated_Source\PSoC4/Counter_1.c ****             /* Check if One Shot mode is enabled i.e. RunMode !=0*/
  60:.\Generated_Source\PSoC4/Counter_1.c ****             #if (Counter_1_RunModeUsed != 0x0u)
  61:.\Generated_Source\PSoC4/Counter_1.c ****                 /* Set 3rd bit of Control register to enable one shot mode */
  62:.\Generated_Source\PSoC4/Counter_1.c ****                 Counter_1_CONTROL |= Counter_1_ONESHOT;
  63:.\Generated_Source\PSoC4/Counter_1.c ****             #endif /* (Counter_1_RunModeUsed != 0x0u) */
  64:.\Generated_Source\PSoC4/Counter_1.c ****             
  65:.\Generated_Source\PSoC4/Counter_1.c ****             /* Set the IRQ to use the status register interrupts */
  66:.\Generated_Source\PSoC4/Counter_1.c ****             Counter_1_CONTROL2 |= Counter_1_CTRL2_IRQ_SEL;
  67:.\Generated_Source\PSoC4/Counter_1.c ****             
  68:.\Generated_Source\PSoC4/Counter_1.c ****             /* Clear and Set SYNCTC and SYNCCMP bits of RT1 register */
  69:.\Generated_Source\PSoC4/Counter_1.c ****             Counter_1_RT1 &= ((uint8)(~Counter_1_RT1_MASK));
  70:.\Generated_Source\PSoC4/Counter_1.c ****             Counter_1_RT1 |= Counter_1_SYNC;     
  71:.\Generated_Source\PSoC4/Counter_1.c ****                     
  72:.\Generated_Source\PSoC4/Counter_1.c ****             /*Enable DSI Sync all all inputs of the Timer*/
  73:.\Generated_Source\PSoC4/Counter_1.c ****             Counter_1_RT1 &= ((uint8)(~Counter_1_SYNCDSI_MASK));
  74:.\Generated_Source\PSoC4/Counter_1.c ****             Counter_1_RT1 |= Counter_1_SYNCDSI_EN;
  75:.\Generated_Source\PSoC4/Counter_1.c **** 
  76:.\Generated_Source\PSoC4/Counter_1.c ****         #else
  77:.\Generated_Source\PSoC4/Counter_1.c ****             #if(!Counter_1_ControlRegRemoved)
  78:.\Generated_Source\PSoC4/Counter_1.c ****             /* Set the default compare mode defined in the parameter */
  79:.\Generated_Source\PSoC4/Counter_1.c ****             ctrl = Counter_1_CONTROL & ((uint8)(~Counter_1_CTRL_CMPMODE_MASK));
  80:.\Generated_Source\PSoC4/Counter_1.c ****             Counter_1_CONTROL = ctrl | Counter_1_DEFAULT_COMPARE_MODE;
  81:.\Generated_Source\PSoC4/Counter_1.c ****             
  82:.\Generated_Source\PSoC4/Counter_1.c ****             /* Set the default capture mode defined in the parameter */
  83:.\Generated_Source\PSoC4/Counter_1.c ****             ctrl = Counter_1_CONTROL & ((uint8)(~Counter_1_CTRL_CAPMODE_MASK));
  84:.\Generated_Source\PSoC4/Counter_1.c ****             
  85:.\Generated_Source\PSoC4/Counter_1.c ****             #if( 0 != Counter_1_CAPTURE_MODE_CONF)
  86:.\Generated_Source\PSoC4/Counter_1.c ****                 Counter_1_CONTROL = ctrl | Counter_1_DEFAULT_CAPTURE_MODE;
  87:.\Generated_Source\PSoC4/Counter_1.c ****             #else
  88:.\Generated_Source\PSoC4/Counter_1.c ****                 Counter_1_CONTROL = ctrl;
  89:.\Generated_Source\PSoC4/Counter_1.c ****             #endif /* 0 != Counter_1_CAPTURE_MODE */ 
ARM GAS  C:\Users\Moses\AppData\Local\Temp\ccwg78q7.s 			page 3


  90:.\Generated_Source\PSoC4/Counter_1.c ****             
  91:.\Generated_Source\PSoC4/Counter_1.c ****             #endif /* (!Counter_1_ControlRegRemoved) */
  92:.\Generated_Source\PSoC4/Counter_1.c ****         #endif /* (Counter_1_UsingFixedFunction) */
  93:.\Generated_Source\PSoC4/Counter_1.c ****         
  94:.\Generated_Source\PSoC4/Counter_1.c ****         /* Clear all data in the FIFO's */
  95:.\Generated_Source\PSoC4/Counter_1.c ****         #if (!Counter_1_UsingFixedFunction)
  96:.\Generated_Source\PSoC4/Counter_1.c ****             Counter_1_ClearFIFO();
  97:.\Generated_Source\PSoC4/Counter_1.c ****         #endif /* (!Counter_1_UsingFixedFunction) */
  98:.\Generated_Source\PSoC4/Counter_1.c ****         
  99:.\Generated_Source\PSoC4/Counter_1.c ****         /* Set Initial values from Configuration */
 100:.\Generated_Source\PSoC4/Counter_1.c ****         Counter_1_WritePeriod(Counter_1_INIT_PERIOD_VALUE);
 101:.\Generated_Source\PSoC4/Counter_1.c ****         #if (!(Counter_1_UsingFixedFunction && (CY_PSOC5A)))
 102:.\Generated_Source\PSoC4/Counter_1.c ****             Counter_1_WriteCounter(Counter_1_INIT_COUNTER_VALUE);
 103:.\Generated_Source\PSoC4/Counter_1.c ****         #endif /* (!(Counter_1_UsingFixedFunction && (CY_PSOC5A))) */
 104:.\Generated_Source\PSoC4/Counter_1.c ****         Counter_1_SetInterruptMode(Counter_1_INIT_INTERRUPTS_MASK);
 105:.\Generated_Source\PSoC4/Counter_1.c ****         
 106:.\Generated_Source\PSoC4/Counter_1.c ****         #if (!Counter_1_UsingFixedFunction)
 107:.\Generated_Source\PSoC4/Counter_1.c ****             /* Read the status register to clear the unwanted interrupts */
 108:.\Generated_Source\PSoC4/Counter_1.c ****             (void)Counter_1_ReadStatusRegister();
 109:.\Generated_Source\PSoC4/Counter_1.c ****             /* Set the compare value (only available to non-fixed function implementation */
 110:.\Generated_Source\PSoC4/Counter_1.c ****             Counter_1_WriteCompare(Counter_1_INIT_COMPARE_VALUE);
 111:.\Generated_Source\PSoC4/Counter_1.c ****             /* Use the interrupt output of the status register for IRQ output */
 112:.\Generated_Source\PSoC4/Counter_1.c ****             
 113:.\Generated_Source\PSoC4/Counter_1.c ****             /* CyEnterCriticalRegion and CyExitCriticalRegion are used to mark following region cri
 114:.\Generated_Source\PSoC4/Counter_1.c ****             /* Enter Critical Region*/
 115:.\Generated_Source\PSoC4/Counter_1.c ****             Counter_1_interruptState = CyEnterCriticalSection();
 116:.\Generated_Source\PSoC4/Counter_1.c ****             
 117:.\Generated_Source\PSoC4/Counter_1.c ****             Counter_1_STATUS_AUX_CTRL |= Counter_1_STATUS_ACTL_INT_EN_MASK;
 118:.\Generated_Source\PSoC4/Counter_1.c ****             
 119:.\Generated_Source\PSoC4/Counter_1.c ****             /* Exit Critical Region*/
 120:.\Generated_Source\PSoC4/Counter_1.c ****             CyExitCriticalSection(Counter_1_interruptState);
 121:.\Generated_Source\PSoC4/Counter_1.c ****             
 122:.\Generated_Source\PSoC4/Counter_1.c ****         #endif /* (!Counter_1_UsingFixedFunction) */
 123:.\Generated_Source\PSoC4/Counter_1.c **** }
 124:.\Generated_Source\PSoC4/Counter_1.c **** 
 125:.\Generated_Source\PSoC4/Counter_1.c **** 
 126:.\Generated_Source\PSoC4/Counter_1.c **** /*******************************************************************************
 127:.\Generated_Source\PSoC4/Counter_1.c **** * Function Name: Counter_1_Enable
 128:.\Generated_Source\PSoC4/Counter_1.c **** ********************************************************************************
 129:.\Generated_Source\PSoC4/Counter_1.c **** * Summary:
 130:.\Generated_Source\PSoC4/Counter_1.c **** *     Enable the Counter
 131:.\Generated_Source\PSoC4/Counter_1.c **** * 
 132:.\Generated_Source\PSoC4/Counter_1.c **** * Parameters:  
 133:.\Generated_Source\PSoC4/Counter_1.c **** *  void  
 134:.\Generated_Source\PSoC4/Counter_1.c **** *
 135:.\Generated_Source\PSoC4/Counter_1.c **** * Return: 
 136:.\Generated_Source\PSoC4/Counter_1.c **** *  void
 137:.\Generated_Source\PSoC4/Counter_1.c **** *
 138:.\Generated_Source\PSoC4/Counter_1.c **** * Side Effects: 
 139:.\Generated_Source\PSoC4/Counter_1.c **** *   If the Enable mode is set to Hardware only then this function has no effect 
 140:.\Generated_Source\PSoC4/Counter_1.c **** *   on the operation of the counter.
 141:.\Generated_Source\PSoC4/Counter_1.c **** *
 142:.\Generated_Source\PSoC4/Counter_1.c **** *******************************************************************************/
 143:.\Generated_Source\PSoC4/Counter_1.c **** void Counter_1_Enable(void) 
 144:.\Generated_Source\PSoC4/Counter_1.c **** {
  26              		.loc 1 144 0
  27              		.cfi_startproc
ARM GAS  C:\Users\Moses\AppData\Local\Temp\ccwg78q7.s 			page 4


 145:.\Generated_Source\PSoC4/Counter_1.c ****     /* Globally Enable the Fixed Function Block chosen */
 146:.\Generated_Source\PSoC4/Counter_1.c ****     #if (Counter_1_UsingFixedFunction)
 147:.\Generated_Source\PSoC4/Counter_1.c ****         Counter_1_GLOBAL_ENABLE |= Counter_1_BLOCK_EN_MASK;
 148:.\Generated_Source\PSoC4/Counter_1.c ****         Counter_1_GLOBAL_STBY_ENABLE |= Counter_1_BLOCK_STBY_EN_MASK;
 149:.\Generated_Source\PSoC4/Counter_1.c ****     #endif /* (Counter_1_UsingFixedFunction) */  
 150:.\Generated_Source\PSoC4/Counter_1.c ****         
 151:.\Generated_Source\PSoC4/Counter_1.c ****     /* Enable the counter from the control register  */
 152:.\Generated_Source\PSoC4/Counter_1.c ****     /* If Fixed Function then make sure Mode is set correctly */
 153:.\Generated_Source\PSoC4/Counter_1.c ****     /* else make sure reset is clear */
 154:.\Generated_Source\PSoC4/Counter_1.c ****     #if(!Counter_1_ControlRegRemoved || Counter_1_UsingFixedFunction)
 155:.\Generated_Source\PSoC4/Counter_1.c ****         Counter_1_CONTROL |= Counter_1_CTRL_ENABLE;                
 156:.\Generated_Source\PSoC4/Counter_1.c ****     #endif /* (!Counter_1_ControlRegRemoved || Counter_1_UsingFixedFunction) */
 157:.\Generated_Source\PSoC4/Counter_1.c ****     
 158:.\Generated_Source\PSoC4/Counter_1.c **** }
  28              		.loc 1 158 0
  29              		@ sp needed
  30 0000 7047     		bx	lr
  31              		.cfi_endproc
  32              	.LFE1:
  33              		.size	Counter_1_Enable, .-Counter_1_Enable
  34 0002 C046     		.section	.text.Counter_1_Stop,"ax",%progbits
  35              		.align	2
  36              		.global	Counter_1_Stop
  37              		.code	16
  38              		.thumb_func
  39              		.type	Counter_1_Stop, %function
  40              	Counter_1_Stop:
  41              	.LFB3:
 159:.\Generated_Source\PSoC4/Counter_1.c **** 
 160:.\Generated_Source\PSoC4/Counter_1.c **** 
 161:.\Generated_Source\PSoC4/Counter_1.c **** /*******************************************************************************
 162:.\Generated_Source\PSoC4/Counter_1.c **** * Function Name: Counter_1_Start
 163:.\Generated_Source\PSoC4/Counter_1.c **** ********************************************************************************
 164:.\Generated_Source\PSoC4/Counter_1.c **** * Summary:
 165:.\Generated_Source\PSoC4/Counter_1.c **** *  Enables the counter for operation 
 166:.\Generated_Source\PSoC4/Counter_1.c **** *
 167:.\Generated_Source\PSoC4/Counter_1.c **** * Parameters:  
 168:.\Generated_Source\PSoC4/Counter_1.c **** *  void  
 169:.\Generated_Source\PSoC4/Counter_1.c **** *
 170:.\Generated_Source\PSoC4/Counter_1.c **** * Return: 
 171:.\Generated_Source\PSoC4/Counter_1.c **** *  void
 172:.\Generated_Source\PSoC4/Counter_1.c **** *
 173:.\Generated_Source\PSoC4/Counter_1.c **** * Global variables:
 174:.\Generated_Source\PSoC4/Counter_1.c **** *  Counter_1_initVar: Is modified when this function is called for the  
 175:.\Generated_Source\PSoC4/Counter_1.c **** *   first time. Is used to ensure that initialization happens only once.
 176:.\Generated_Source\PSoC4/Counter_1.c **** *
 177:.\Generated_Source\PSoC4/Counter_1.c **** *******************************************************************************/
 178:.\Generated_Source\PSoC4/Counter_1.c **** void Counter_1_Start(void) 
 179:.\Generated_Source\PSoC4/Counter_1.c **** {
 180:.\Generated_Source\PSoC4/Counter_1.c ****     if(Counter_1_initVar == 0u)
 181:.\Generated_Source\PSoC4/Counter_1.c ****     {
 182:.\Generated_Source\PSoC4/Counter_1.c ****         Counter_1_Init();
 183:.\Generated_Source\PSoC4/Counter_1.c ****         
 184:.\Generated_Source\PSoC4/Counter_1.c ****         Counter_1_initVar = 1u; /* Clear this bit for Initialization */        
 185:.\Generated_Source\PSoC4/Counter_1.c ****     }
 186:.\Generated_Source\PSoC4/Counter_1.c ****     
 187:.\Generated_Source\PSoC4/Counter_1.c ****     /* Enable the Counter */
ARM GAS  C:\Users\Moses\AppData\Local\Temp\ccwg78q7.s 			page 5


 188:.\Generated_Source\PSoC4/Counter_1.c ****     Counter_1_Enable();        
 189:.\Generated_Source\PSoC4/Counter_1.c **** }
 190:.\Generated_Source\PSoC4/Counter_1.c **** 
 191:.\Generated_Source\PSoC4/Counter_1.c **** 
 192:.\Generated_Source\PSoC4/Counter_1.c **** /*******************************************************************************
 193:.\Generated_Source\PSoC4/Counter_1.c **** * Function Name: Counter_1_Stop
 194:.\Generated_Source\PSoC4/Counter_1.c **** ********************************************************************************
 195:.\Generated_Source\PSoC4/Counter_1.c **** * Summary:
 196:.\Generated_Source\PSoC4/Counter_1.c **** * Halts the counter, but does not change any modes or disable interrupts.
 197:.\Generated_Source\PSoC4/Counter_1.c **** *
 198:.\Generated_Source\PSoC4/Counter_1.c **** * Parameters:  
 199:.\Generated_Source\PSoC4/Counter_1.c **** *  void  
 200:.\Generated_Source\PSoC4/Counter_1.c **** *
 201:.\Generated_Source\PSoC4/Counter_1.c **** * Return: 
 202:.\Generated_Source\PSoC4/Counter_1.c **** *  void
 203:.\Generated_Source\PSoC4/Counter_1.c **** *
 204:.\Generated_Source\PSoC4/Counter_1.c **** * Side Effects: If the Enable mode is set to Hardware only then this function
 205:.\Generated_Source\PSoC4/Counter_1.c **** *               has no effect on the operation of the counter.
 206:.\Generated_Source\PSoC4/Counter_1.c **** *
 207:.\Generated_Source\PSoC4/Counter_1.c **** *******************************************************************************/
 208:.\Generated_Source\PSoC4/Counter_1.c **** void Counter_1_Stop(void) 
 209:.\Generated_Source\PSoC4/Counter_1.c **** {
  42              		.loc 1 209 0
  43              		.cfi_startproc
 210:.\Generated_Source\PSoC4/Counter_1.c ****     /* Disable Counter */
 211:.\Generated_Source\PSoC4/Counter_1.c ****     #if(!Counter_1_ControlRegRemoved || Counter_1_UsingFixedFunction)
 212:.\Generated_Source\PSoC4/Counter_1.c ****         Counter_1_CONTROL &= ((uint8)(~Counter_1_CTRL_ENABLE));        
 213:.\Generated_Source\PSoC4/Counter_1.c ****     #endif /* (!Counter_1_ControlRegRemoved || Counter_1_UsingFixedFunction) */
 214:.\Generated_Source\PSoC4/Counter_1.c ****     
 215:.\Generated_Source\PSoC4/Counter_1.c ****     /* Globally disable the Fixed Function Block chosen */
 216:.\Generated_Source\PSoC4/Counter_1.c ****     #if (Counter_1_UsingFixedFunction)
 217:.\Generated_Source\PSoC4/Counter_1.c ****         Counter_1_GLOBAL_ENABLE &= ((uint8)(~Counter_1_BLOCK_EN_MASK));
 218:.\Generated_Source\PSoC4/Counter_1.c ****         Counter_1_GLOBAL_STBY_ENABLE &= ((uint8)(~Counter_1_BLOCK_STBY_EN_MASK));
 219:.\Generated_Source\PSoC4/Counter_1.c ****     #endif /* (Counter_1_UsingFixedFunction) */
 220:.\Generated_Source\PSoC4/Counter_1.c **** }
  44              		.loc 1 220 0
  45              		@ sp needed
  46 0000 7047     		bx	lr
  47              		.cfi_endproc
  48              	.LFE3:
  49              		.size	Counter_1_Stop, .-Counter_1_Stop
  50 0002 C046     		.section	.text.Counter_1_SetInterruptMode,"ax",%progbits
  51              		.align	2
  52              		.global	Counter_1_SetInterruptMode
  53              		.code	16
  54              		.thumb_func
  55              		.type	Counter_1_SetInterruptMode, %function
  56              	Counter_1_SetInterruptMode:
  57              	.LFB4:
 221:.\Generated_Source\PSoC4/Counter_1.c **** 
 222:.\Generated_Source\PSoC4/Counter_1.c **** 
 223:.\Generated_Source\PSoC4/Counter_1.c **** /*******************************************************************************
 224:.\Generated_Source\PSoC4/Counter_1.c **** * Function Name: Counter_1_SetInterruptMode
 225:.\Generated_Source\PSoC4/Counter_1.c **** ********************************************************************************
 226:.\Generated_Source\PSoC4/Counter_1.c **** * Summary:
 227:.\Generated_Source\PSoC4/Counter_1.c **** * Configures which interrupt sources are enabled to generate the final interrupt
 228:.\Generated_Source\PSoC4/Counter_1.c **** *
ARM GAS  C:\Users\Moses\AppData\Local\Temp\ccwg78q7.s 			page 6


 229:.\Generated_Source\PSoC4/Counter_1.c **** * Parameters:  
 230:.\Generated_Source\PSoC4/Counter_1.c **** *  InterruptsMask: This parameter is an or'd collection of the status bits
 231:.\Generated_Source\PSoC4/Counter_1.c **** *                   which will be allowed to generate the counters interrupt.   
 232:.\Generated_Source\PSoC4/Counter_1.c **** *
 233:.\Generated_Source\PSoC4/Counter_1.c **** * Return: 
 234:.\Generated_Source\PSoC4/Counter_1.c **** *  void
 235:.\Generated_Source\PSoC4/Counter_1.c **** *
 236:.\Generated_Source\PSoC4/Counter_1.c **** *******************************************************************************/
 237:.\Generated_Source\PSoC4/Counter_1.c **** void Counter_1_SetInterruptMode(uint8 interruptsMask) 
 238:.\Generated_Source\PSoC4/Counter_1.c **** {
  58              		.loc 1 238 0
  59              		.cfi_startproc
  60              	.LVL0:
 239:.\Generated_Source\PSoC4/Counter_1.c ****     Counter_1_STATUS_MASK = interruptsMask;
  61              		.loc 1 239 0
  62 0000 014B     		ldr	r3, .L4
  63 0002 1870     		strb	r0, [r3]
 240:.\Generated_Source\PSoC4/Counter_1.c **** }
  64              		.loc 1 240 0
  65              		@ sp needed
  66 0004 7047     		bx	lr
  67              	.L5:
  68 0006 C046     		.align	2
  69              	.L4:
  70 0008 81000F40 		.word	1074724993
  71              		.cfi_endproc
  72              	.LFE4:
  73              		.size	Counter_1_SetInterruptMode, .-Counter_1_SetInterruptMode
  74              		.section	.text.Counter_1_ReadStatusRegister,"ax",%progbits
  75              		.align	2
  76              		.global	Counter_1_ReadStatusRegister
  77              		.code	16
  78              		.thumb_func
  79              		.type	Counter_1_ReadStatusRegister, %function
  80              	Counter_1_ReadStatusRegister:
  81              	.LFB5:
 241:.\Generated_Source\PSoC4/Counter_1.c **** 
 242:.\Generated_Source\PSoC4/Counter_1.c **** 
 243:.\Generated_Source\PSoC4/Counter_1.c **** /*******************************************************************************
 244:.\Generated_Source\PSoC4/Counter_1.c **** * Function Name: Counter_1_ReadStatusRegister
 245:.\Generated_Source\PSoC4/Counter_1.c **** ********************************************************************************
 246:.\Generated_Source\PSoC4/Counter_1.c **** * Summary:
 247:.\Generated_Source\PSoC4/Counter_1.c **** *   Reads the status register and returns it's state. This function should use
 248:.\Generated_Source\PSoC4/Counter_1.c **** *       defined types for the bit-field information as the bits in this
 249:.\Generated_Source\PSoC4/Counter_1.c **** *       register may be permuteable.
 250:.\Generated_Source\PSoC4/Counter_1.c **** *
 251:.\Generated_Source\PSoC4/Counter_1.c **** * Parameters:  
 252:.\Generated_Source\PSoC4/Counter_1.c **** *  void
 253:.\Generated_Source\PSoC4/Counter_1.c **** *
 254:.\Generated_Source\PSoC4/Counter_1.c **** * Return: 
 255:.\Generated_Source\PSoC4/Counter_1.c **** *  (uint8) The contents of the status register
 256:.\Generated_Source\PSoC4/Counter_1.c **** *
 257:.\Generated_Source\PSoC4/Counter_1.c **** * Side Effects:
 258:.\Generated_Source\PSoC4/Counter_1.c **** *   Status register bits may be clear on read. 
 259:.\Generated_Source\PSoC4/Counter_1.c **** *
 260:.\Generated_Source\PSoC4/Counter_1.c **** *******************************************************************************/
 261:.\Generated_Source\PSoC4/Counter_1.c **** uint8   Counter_1_ReadStatusRegister(void) 
ARM GAS  C:\Users\Moses\AppData\Local\Temp\ccwg78q7.s 			page 7


 262:.\Generated_Source\PSoC4/Counter_1.c **** {
  82              		.loc 1 262 0
  83              		.cfi_startproc
 263:.\Generated_Source\PSoC4/Counter_1.c ****     return Counter_1_STATUS;
  84              		.loc 1 263 0
  85 0000 014B     		ldr	r3, .L7
  86 0002 1878     		ldrb	r0, [r3]
  87 0004 C0B2     		uxtb	r0, r0
 264:.\Generated_Source\PSoC4/Counter_1.c **** }
  88              		.loc 1 264 0
  89              		@ sp needed
  90 0006 7047     		bx	lr
  91              	.L8:
  92              		.align	2
  93              	.L7:
  94 0008 61000F40 		.word	1074724961
  95              		.cfi_endproc
  96              	.LFE5:
  97              		.size	Counter_1_ReadStatusRegister, .-Counter_1_ReadStatusRegister
  98              		.section	.text.Counter_1_WriteCounter,"ax",%progbits
  99              		.align	2
 100              		.global	Counter_1_WriteCounter
 101              		.code	16
 102              		.thumb_func
 103              		.type	Counter_1_WriteCounter, %function
 104              	Counter_1_WriteCounter:
 105              	.LFB6:
 265:.\Generated_Source\PSoC4/Counter_1.c **** 
 266:.\Generated_Source\PSoC4/Counter_1.c **** 
 267:.\Generated_Source\PSoC4/Counter_1.c **** #if(!Counter_1_ControlRegRemoved)
 268:.\Generated_Source\PSoC4/Counter_1.c **** /*******************************************************************************
 269:.\Generated_Source\PSoC4/Counter_1.c **** * Function Name: Counter_1_ReadControlRegister
 270:.\Generated_Source\PSoC4/Counter_1.c **** ********************************************************************************
 271:.\Generated_Source\PSoC4/Counter_1.c **** * Summary:
 272:.\Generated_Source\PSoC4/Counter_1.c **** *   Reads the control register and returns it's state. This function should use
 273:.\Generated_Source\PSoC4/Counter_1.c **** *       defined types for the bit-field information as the bits in this
 274:.\Generated_Source\PSoC4/Counter_1.c **** *       register may be permuteable.
 275:.\Generated_Source\PSoC4/Counter_1.c **** *
 276:.\Generated_Source\PSoC4/Counter_1.c **** * Parameters:  
 277:.\Generated_Source\PSoC4/Counter_1.c **** *  void
 278:.\Generated_Source\PSoC4/Counter_1.c **** *
 279:.\Generated_Source\PSoC4/Counter_1.c **** * Return: 
 280:.\Generated_Source\PSoC4/Counter_1.c **** *  (uint8) The contents of the control register
 281:.\Generated_Source\PSoC4/Counter_1.c **** *
 282:.\Generated_Source\PSoC4/Counter_1.c **** *******************************************************************************/
 283:.\Generated_Source\PSoC4/Counter_1.c **** uint8   Counter_1_ReadControlRegister(void) 
 284:.\Generated_Source\PSoC4/Counter_1.c **** {
 285:.\Generated_Source\PSoC4/Counter_1.c ****     return Counter_1_CONTROL;
 286:.\Generated_Source\PSoC4/Counter_1.c **** }
 287:.\Generated_Source\PSoC4/Counter_1.c **** 
 288:.\Generated_Source\PSoC4/Counter_1.c **** 
 289:.\Generated_Source\PSoC4/Counter_1.c **** /*******************************************************************************
 290:.\Generated_Source\PSoC4/Counter_1.c **** * Function Name: Counter_1_WriteControlRegister
 291:.\Generated_Source\PSoC4/Counter_1.c **** ********************************************************************************
 292:.\Generated_Source\PSoC4/Counter_1.c **** * Summary:
 293:.\Generated_Source\PSoC4/Counter_1.c **** *   Sets the bit-field of the control register.  This function should use
 294:.\Generated_Source\PSoC4/Counter_1.c **** *       defined types for the bit-field information as the bits in this
ARM GAS  C:\Users\Moses\AppData\Local\Temp\ccwg78q7.s 			page 8


 295:.\Generated_Source\PSoC4/Counter_1.c **** *       register may be permuteable.
 296:.\Generated_Source\PSoC4/Counter_1.c **** *
 297:.\Generated_Source\PSoC4/Counter_1.c **** * Parameters:  
 298:.\Generated_Source\PSoC4/Counter_1.c **** *  void
 299:.\Generated_Source\PSoC4/Counter_1.c **** *
 300:.\Generated_Source\PSoC4/Counter_1.c **** * Return: 
 301:.\Generated_Source\PSoC4/Counter_1.c **** *  (uint8) The contents of the control register
 302:.\Generated_Source\PSoC4/Counter_1.c **** *
 303:.\Generated_Source\PSoC4/Counter_1.c **** *******************************************************************************/
 304:.\Generated_Source\PSoC4/Counter_1.c **** void    Counter_1_WriteControlRegister(uint8 control) 
 305:.\Generated_Source\PSoC4/Counter_1.c **** {
 306:.\Generated_Source\PSoC4/Counter_1.c ****     Counter_1_CONTROL = control;
 307:.\Generated_Source\PSoC4/Counter_1.c **** }
 308:.\Generated_Source\PSoC4/Counter_1.c **** 
 309:.\Generated_Source\PSoC4/Counter_1.c **** #endif  /* (!Counter_1_ControlRegRemoved) */
 310:.\Generated_Source\PSoC4/Counter_1.c **** 
 311:.\Generated_Source\PSoC4/Counter_1.c **** 
 312:.\Generated_Source\PSoC4/Counter_1.c **** #if (!(Counter_1_UsingFixedFunction && (CY_PSOC5A)))
 313:.\Generated_Source\PSoC4/Counter_1.c **** /*******************************************************************************
 314:.\Generated_Source\PSoC4/Counter_1.c **** * Function Name: Counter_1_WriteCounter
 315:.\Generated_Source\PSoC4/Counter_1.c **** ********************************************************************************
 316:.\Generated_Source\PSoC4/Counter_1.c **** * Summary:
 317:.\Generated_Source\PSoC4/Counter_1.c **** *   This funtion is used to set the counter to a specific value
 318:.\Generated_Source\PSoC4/Counter_1.c **** *
 319:.\Generated_Source\PSoC4/Counter_1.c **** * Parameters:  
 320:.\Generated_Source\PSoC4/Counter_1.c **** *  counter:  New counter value. 
 321:.\Generated_Source\PSoC4/Counter_1.c **** *
 322:.\Generated_Source\PSoC4/Counter_1.c **** * Return: 
 323:.\Generated_Source\PSoC4/Counter_1.c **** *  void 
 324:.\Generated_Source\PSoC4/Counter_1.c **** *
 325:.\Generated_Source\PSoC4/Counter_1.c **** *******************************************************************************/
 326:.\Generated_Source\PSoC4/Counter_1.c **** void Counter_1_WriteCounter(uint16 counter) \
 327:.\Generated_Source\PSoC4/Counter_1.c ****                                    
 328:.\Generated_Source\PSoC4/Counter_1.c **** {
 106              		.loc 1 328 0
 107              		.cfi_startproc
 108              	.LVL1:
 329:.\Generated_Source\PSoC4/Counter_1.c ****     #if(Counter_1_UsingFixedFunction)
 330:.\Generated_Source\PSoC4/Counter_1.c ****         /* assert if block is already enabled */
 331:.\Generated_Source\PSoC4/Counter_1.c ****         CYASSERT (0u == (Counter_1_GLOBAL_ENABLE & Counter_1_BLOCK_EN_MASK));
 332:.\Generated_Source\PSoC4/Counter_1.c ****         /* If block is disabled, enable it and then write the counter */
 333:.\Generated_Source\PSoC4/Counter_1.c ****         Counter_1_GLOBAL_ENABLE |= Counter_1_BLOCK_EN_MASK;
 334:.\Generated_Source\PSoC4/Counter_1.c ****         CY_SET_REG16(Counter_1_COUNTER_LSB_PTR, (uint16)counter);
 335:.\Generated_Source\PSoC4/Counter_1.c ****         Counter_1_GLOBAL_ENABLE &= ((uint8)(~Counter_1_BLOCK_EN_MASK));
 336:.\Generated_Source\PSoC4/Counter_1.c ****     #else
 337:.\Generated_Source\PSoC4/Counter_1.c ****         CY_SET_REG16(Counter_1_COUNTER_LSB_PTR, counter);
 109              		.loc 1 337 0
 110 0000 014B     		ldr	r3, .L10
 111 0002 1880     		strh	r0, [r3]
 338:.\Generated_Source\PSoC4/Counter_1.c ****     #endif /* (Counter_1_UsingFixedFunction) */
 339:.\Generated_Source\PSoC4/Counter_1.c **** }
 112              		.loc 1 339 0
 113              		@ sp needed
 114 0004 7047     		bx	lr
 115              	.L11:
 116 0006 C046     		.align	2
 117              	.L10:
ARM GAS  C:\Users\Moses\AppData\Local\Temp\ccwg78q7.s 			page 9


 118 0008 00100F40 		.word	1074728960
 119              		.cfi_endproc
 120              	.LFE6:
 121              		.size	Counter_1_WriteCounter, .-Counter_1_WriteCounter
 122              		.section	.text.Counter_1_ReadCounter,"ax",%progbits
 123              		.align	2
 124              		.global	Counter_1_ReadCounter
 125              		.code	16
 126              		.thumb_func
 127              		.type	Counter_1_ReadCounter, %function
 128              	Counter_1_ReadCounter:
 129              	.LFB7:
 340:.\Generated_Source\PSoC4/Counter_1.c **** #endif /* (!(Counter_1_UsingFixedFunction && (CY_PSOC5A))) */
 341:.\Generated_Source\PSoC4/Counter_1.c **** 
 342:.\Generated_Source\PSoC4/Counter_1.c **** 
 343:.\Generated_Source\PSoC4/Counter_1.c **** /*******************************************************************************
 344:.\Generated_Source\PSoC4/Counter_1.c **** * Function Name: Counter_1_ReadCounter
 345:.\Generated_Source\PSoC4/Counter_1.c **** ********************************************************************************
 346:.\Generated_Source\PSoC4/Counter_1.c **** * Summary:
 347:.\Generated_Source\PSoC4/Counter_1.c **** * Returns the current value of the counter.  It doesn't matter
 348:.\Generated_Source\PSoC4/Counter_1.c **** * if the counter is enabled or running.
 349:.\Generated_Source\PSoC4/Counter_1.c **** *
 350:.\Generated_Source\PSoC4/Counter_1.c **** * Parameters:  
 351:.\Generated_Source\PSoC4/Counter_1.c **** *  void:  
 352:.\Generated_Source\PSoC4/Counter_1.c **** *
 353:.\Generated_Source\PSoC4/Counter_1.c **** * Return: 
 354:.\Generated_Source\PSoC4/Counter_1.c **** *  (uint16) The present value of the counter.
 355:.\Generated_Source\PSoC4/Counter_1.c **** *
 356:.\Generated_Source\PSoC4/Counter_1.c **** *******************************************************************************/
 357:.\Generated_Source\PSoC4/Counter_1.c **** uint16 Counter_1_ReadCounter(void) 
 358:.\Generated_Source\PSoC4/Counter_1.c **** {
 130              		.loc 1 358 0
 131              		.cfi_startproc
 359:.\Generated_Source\PSoC4/Counter_1.c ****     /* Force capture by reading Accumulator */
 360:.\Generated_Source\PSoC4/Counter_1.c ****     /* Must first do a software capture to be able to read the counter */
 361:.\Generated_Source\PSoC4/Counter_1.c ****     /* It is up to the user code to make sure there isn't already captured data in the FIFO */
 362:.\Generated_Source\PSoC4/Counter_1.c ****     #if(Counter_1_UsingFixedFunction)
 363:.\Generated_Source\PSoC4/Counter_1.c **** 		(void)CY_GET_REG16(Counter_1_COUNTER_LSB_PTR);
 364:.\Generated_Source\PSoC4/Counter_1.c **** 	#else
 365:.\Generated_Source\PSoC4/Counter_1.c **** 		(void)CY_GET_REG8(Counter_1_COUNTER_LSB_PTR_8BIT);
 132              		.loc 1 365 0
 133 0000 024B     		ldr	r3, .L13
 134 0002 1B78     		ldrb	r3, [r3]
 366:.\Generated_Source\PSoC4/Counter_1.c **** 	#endif/* (Counter_1_UsingFixedFunction) */
 367:.\Generated_Source\PSoC4/Counter_1.c ****     
 368:.\Generated_Source\PSoC4/Counter_1.c ****     /* Read the data from the FIFO (or capture register for Fixed Function)*/
 369:.\Generated_Source\PSoC4/Counter_1.c ****     #if(Counter_1_UsingFixedFunction)
 370:.\Generated_Source\PSoC4/Counter_1.c ****         return ((uint16)CY_GET_REG16(Counter_1_STATICCOUNT_LSB_PTR));
 371:.\Generated_Source\PSoC4/Counter_1.c ****     #else
 372:.\Generated_Source\PSoC4/Counter_1.c ****         return (CY_GET_REG16(Counter_1_STATICCOUNT_LSB_PTR));
 135              		.loc 1 372 0
 136 0004 024B     		ldr	r3, .L13+4
 137 0006 1888     		ldrh	r0, [r3]
 138 0008 80B2     		uxth	r0, r0
 373:.\Generated_Source\PSoC4/Counter_1.c ****     #endif /* (Counter_1_UsingFixedFunction) */
 374:.\Generated_Source\PSoC4/Counter_1.c **** }
 139              		.loc 1 374 0
ARM GAS  C:\Users\Moses\AppData\Local\Temp\ccwg78q7.s 			page 10


 140              		@ sp needed
 141 000a 7047     		bx	lr
 142              	.L14:
 143              		.align	2
 144              	.L13:
 145 000c 00000F40 		.word	1074724864
 146 0010 80100F40 		.word	1074729088
 147              		.cfi_endproc
 148              	.LFE7:
 149              		.size	Counter_1_ReadCounter, .-Counter_1_ReadCounter
 150              		.section	.text.Counter_1_ReadCapture,"ax",%progbits
 151              		.align	2
 152              		.global	Counter_1_ReadCapture
 153              		.code	16
 154              		.thumb_func
 155              		.type	Counter_1_ReadCapture, %function
 156              	Counter_1_ReadCapture:
 157              	.LFB8:
 375:.\Generated_Source\PSoC4/Counter_1.c **** 
 376:.\Generated_Source\PSoC4/Counter_1.c **** 
 377:.\Generated_Source\PSoC4/Counter_1.c **** /*******************************************************************************
 378:.\Generated_Source\PSoC4/Counter_1.c **** * Function Name: Counter_1_ReadCapture
 379:.\Generated_Source\PSoC4/Counter_1.c **** ********************************************************************************
 380:.\Generated_Source\PSoC4/Counter_1.c **** * Summary:
 381:.\Generated_Source\PSoC4/Counter_1.c **** *   This function returns the last value captured.
 382:.\Generated_Source\PSoC4/Counter_1.c **** *
 383:.\Generated_Source\PSoC4/Counter_1.c **** * Parameters:  
 384:.\Generated_Source\PSoC4/Counter_1.c **** *  void
 385:.\Generated_Source\PSoC4/Counter_1.c **** *
 386:.\Generated_Source\PSoC4/Counter_1.c **** * Return: 
 387:.\Generated_Source\PSoC4/Counter_1.c **** *  (uint16) Present Capture value.
 388:.\Generated_Source\PSoC4/Counter_1.c **** *
 389:.\Generated_Source\PSoC4/Counter_1.c **** *******************************************************************************/
 390:.\Generated_Source\PSoC4/Counter_1.c **** uint16 Counter_1_ReadCapture(void) 
 391:.\Generated_Source\PSoC4/Counter_1.c **** {
 158              		.loc 1 391 0
 159              		.cfi_startproc
 392:.\Generated_Source\PSoC4/Counter_1.c ****     #if(Counter_1_UsingFixedFunction)
 393:.\Generated_Source\PSoC4/Counter_1.c ****         return ((uint16)CY_GET_REG16(Counter_1_STATICCOUNT_LSB_PTR));
 394:.\Generated_Source\PSoC4/Counter_1.c ****     #else
 395:.\Generated_Source\PSoC4/Counter_1.c ****         return (CY_GET_REG16(Counter_1_STATICCOUNT_LSB_PTR));
 160              		.loc 1 395 0
 161 0000 014B     		ldr	r3, .L16
 162 0002 1888     		ldrh	r0, [r3]
 163 0004 80B2     		uxth	r0, r0
 396:.\Generated_Source\PSoC4/Counter_1.c ****     #endif /* (Counter_1_UsingFixedFunction) */
 397:.\Generated_Source\PSoC4/Counter_1.c **** }
 164              		.loc 1 397 0
 165              		@ sp needed
 166 0006 7047     		bx	lr
 167              	.L17:
 168              		.align	2
 169              	.L16:
 170 0008 80100F40 		.word	1074729088
 171              		.cfi_endproc
 172              	.LFE8:
 173              		.size	Counter_1_ReadCapture, .-Counter_1_ReadCapture
ARM GAS  C:\Users\Moses\AppData\Local\Temp\ccwg78q7.s 			page 11


 174              		.section	.text.Counter_1_WritePeriod,"ax",%progbits
 175              		.align	2
 176              		.global	Counter_1_WritePeriod
 177              		.code	16
 178              		.thumb_func
 179              		.type	Counter_1_WritePeriod, %function
 180              	Counter_1_WritePeriod:
 181              	.LFB9:
 398:.\Generated_Source\PSoC4/Counter_1.c **** 
 399:.\Generated_Source\PSoC4/Counter_1.c **** 
 400:.\Generated_Source\PSoC4/Counter_1.c **** /*******************************************************************************
 401:.\Generated_Source\PSoC4/Counter_1.c **** * Function Name: Counter_1_WritePeriod
 402:.\Generated_Source\PSoC4/Counter_1.c **** ********************************************************************************
 403:.\Generated_Source\PSoC4/Counter_1.c **** * Summary:
 404:.\Generated_Source\PSoC4/Counter_1.c **** * Changes the period of the counter.  The new period 
 405:.\Generated_Source\PSoC4/Counter_1.c **** * will be loaded the next time terminal count is detected.
 406:.\Generated_Source\PSoC4/Counter_1.c **** *
 407:.\Generated_Source\PSoC4/Counter_1.c **** * Parameters:  
 408:.\Generated_Source\PSoC4/Counter_1.c **** *  period: (uint16) A value of 0 will result in
 409:.\Generated_Source\PSoC4/Counter_1.c **** *         the counter remaining at zero.  
 410:.\Generated_Source\PSoC4/Counter_1.c **** *
 411:.\Generated_Source\PSoC4/Counter_1.c **** * Return: 
 412:.\Generated_Source\PSoC4/Counter_1.c **** *  void
 413:.\Generated_Source\PSoC4/Counter_1.c **** *
 414:.\Generated_Source\PSoC4/Counter_1.c **** *******************************************************************************/
 415:.\Generated_Source\PSoC4/Counter_1.c **** void Counter_1_WritePeriod(uint16 period) 
 416:.\Generated_Source\PSoC4/Counter_1.c **** {
 182              		.loc 1 416 0
 183              		.cfi_startproc
 184              	.LVL2:
 417:.\Generated_Source\PSoC4/Counter_1.c ****     #if(Counter_1_UsingFixedFunction)
 418:.\Generated_Source\PSoC4/Counter_1.c ****         CY_SET_REG16(Counter_1_PERIOD_LSB_PTR,(uint16)period);
 419:.\Generated_Source\PSoC4/Counter_1.c ****     #else
 420:.\Generated_Source\PSoC4/Counter_1.c ****         CY_SET_REG16(Counter_1_PERIOD_LSB_PTR, period);
 185              		.loc 1 420 0
 186 0000 014B     		ldr	r3, .L19
 187 0002 1880     		strh	r0, [r3]
 421:.\Generated_Source\PSoC4/Counter_1.c ****     #endif /* (Counter_1_UsingFixedFunction) */
 422:.\Generated_Source\PSoC4/Counter_1.c **** }
 188              		.loc 1 422 0
 189              		@ sp needed
 190 0004 7047     		bx	lr
 191              	.L20:
 192 0006 C046     		.align	2
 193              	.L19:
 194 0008 40100F40 		.word	1074729024
 195              		.cfi_endproc
 196              	.LFE9:
 197              		.size	Counter_1_WritePeriod, .-Counter_1_WritePeriod
 198              		.section	.text.Counter_1_ReadPeriod,"ax",%progbits
 199              		.align	2
 200              		.global	Counter_1_ReadPeriod
 201              		.code	16
 202              		.thumb_func
 203              		.type	Counter_1_ReadPeriod, %function
 204              	Counter_1_ReadPeriod:
 205              	.LFB10:
ARM GAS  C:\Users\Moses\AppData\Local\Temp\ccwg78q7.s 			page 12


 423:.\Generated_Source\PSoC4/Counter_1.c **** 
 424:.\Generated_Source\PSoC4/Counter_1.c **** 
 425:.\Generated_Source\PSoC4/Counter_1.c **** /*******************************************************************************
 426:.\Generated_Source\PSoC4/Counter_1.c **** * Function Name: Counter_1_ReadPeriod
 427:.\Generated_Source\PSoC4/Counter_1.c **** ********************************************************************************
 428:.\Generated_Source\PSoC4/Counter_1.c **** * Summary:
 429:.\Generated_Source\PSoC4/Counter_1.c **** * Reads the current period value without affecting counter operation.
 430:.\Generated_Source\PSoC4/Counter_1.c **** *
 431:.\Generated_Source\PSoC4/Counter_1.c **** * Parameters:  
 432:.\Generated_Source\PSoC4/Counter_1.c **** *  void:  
 433:.\Generated_Source\PSoC4/Counter_1.c **** *
 434:.\Generated_Source\PSoC4/Counter_1.c **** * Return: 
 435:.\Generated_Source\PSoC4/Counter_1.c **** *  (uint16) Present period value.
 436:.\Generated_Source\PSoC4/Counter_1.c **** *
 437:.\Generated_Source\PSoC4/Counter_1.c **** *******************************************************************************/
 438:.\Generated_Source\PSoC4/Counter_1.c **** uint16 Counter_1_ReadPeriod(void) 
 439:.\Generated_Source\PSoC4/Counter_1.c **** {
 206              		.loc 1 439 0
 207              		.cfi_startproc
 440:.\Generated_Source\PSoC4/Counter_1.c ****     #if(Counter_1_UsingFixedFunction)
 441:.\Generated_Source\PSoC4/Counter_1.c ****         return ((uint16)CY_GET_REG16(Counter_1_PERIOD_LSB_PTR));
 442:.\Generated_Source\PSoC4/Counter_1.c ****     #else
 443:.\Generated_Source\PSoC4/Counter_1.c ****         return (CY_GET_REG16(Counter_1_PERIOD_LSB_PTR));
 208              		.loc 1 443 0
 209 0000 014B     		ldr	r3, .L22
 210 0002 1888     		ldrh	r0, [r3]
 211 0004 80B2     		uxth	r0, r0
 444:.\Generated_Source\PSoC4/Counter_1.c ****     #endif /* (Counter_1_UsingFixedFunction) */
 445:.\Generated_Source\PSoC4/Counter_1.c **** }
 212              		.loc 1 445 0
 213              		@ sp needed
 214 0006 7047     		bx	lr
 215              	.L23:
 216              		.align	2
 217              	.L22:
 218 0008 40100F40 		.word	1074729024
 219              		.cfi_endproc
 220              	.LFE10:
 221              		.size	Counter_1_ReadPeriod, .-Counter_1_ReadPeriod
 222              		.section	.text.Counter_1_WriteCompare,"ax",%progbits
 223              		.align	2
 224              		.global	Counter_1_WriteCompare
 225              		.code	16
 226              		.thumb_func
 227              		.type	Counter_1_WriteCompare, %function
 228              	Counter_1_WriteCompare:
 229              	.LFB11:
 446:.\Generated_Source\PSoC4/Counter_1.c **** 
 447:.\Generated_Source\PSoC4/Counter_1.c **** 
 448:.\Generated_Source\PSoC4/Counter_1.c **** #if (!Counter_1_UsingFixedFunction)
 449:.\Generated_Source\PSoC4/Counter_1.c **** /*******************************************************************************
 450:.\Generated_Source\PSoC4/Counter_1.c **** * Function Name: Counter_1_WriteCompare
 451:.\Generated_Source\PSoC4/Counter_1.c **** ********************************************************************************
 452:.\Generated_Source\PSoC4/Counter_1.c **** * Summary:
 453:.\Generated_Source\PSoC4/Counter_1.c **** * Changes the compare value.  The compare output will 
 454:.\Generated_Source\PSoC4/Counter_1.c **** * reflect the new value on the next UDB clock.  The compare output will be 
 455:.\Generated_Source\PSoC4/Counter_1.c **** * driven high when the present counter value compares true based on the 
ARM GAS  C:\Users\Moses\AppData\Local\Temp\ccwg78q7.s 			page 13


 456:.\Generated_Source\PSoC4/Counter_1.c **** * configured compare mode setting. 
 457:.\Generated_Source\PSoC4/Counter_1.c **** *
 458:.\Generated_Source\PSoC4/Counter_1.c **** * Parameters:  
 459:.\Generated_Source\PSoC4/Counter_1.c **** *  Compare:  New compare value. 
 460:.\Generated_Source\PSoC4/Counter_1.c **** *
 461:.\Generated_Source\PSoC4/Counter_1.c **** * Return: 
 462:.\Generated_Source\PSoC4/Counter_1.c **** *  void
 463:.\Generated_Source\PSoC4/Counter_1.c **** *
 464:.\Generated_Source\PSoC4/Counter_1.c **** *******************************************************************************/
 465:.\Generated_Source\PSoC4/Counter_1.c **** void Counter_1_WriteCompare(uint16 compare) \
 466:.\Generated_Source\PSoC4/Counter_1.c ****                                    
 467:.\Generated_Source\PSoC4/Counter_1.c **** {
 230              		.loc 1 467 0
 231              		.cfi_startproc
 232              	.LVL3:
 468:.\Generated_Source\PSoC4/Counter_1.c ****     #if(Counter_1_UsingFixedFunction)
 469:.\Generated_Source\PSoC4/Counter_1.c ****         CY_SET_REG16(Counter_1_COMPARE_LSB_PTR, (uint16)compare);
 470:.\Generated_Source\PSoC4/Counter_1.c ****     #else
 471:.\Generated_Source\PSoC4/Counter_1.c ****         CY_SET_REG16(Counter_1_COMPARE_LSB_PTR, compare);
 233              		.loc 1 471 0
 234 0000 014B     		ldr	r3, .L25
 235 0002 1880     		strh	r0, [r3]
 472:.\Generated_Source\PSoC4/Counter_1.c ****     #endif /* (Counter_1_UsingFixedFunction) */
 473:.\Generated_Source\PSoC4/Counter_1.c **** }
 236              		.loc 1 473 0
 237              		@ sp needed
 238 0004 7047     		bx	lr
 239              	.L26:
 240 0006 C046     		.align	2
 241              	.L25:
 242 0008 60100F40 		.word	1074729056
 243              		.cfi_endproc
 244              	.LFE11:
 245              		.size	Counter_1_WriteCompare, .-Counter_1_WriteCompare
 246              		.section	.text.Counter_1_ReadCompare,"ax",%progbits
 247              		.align	2
 248              		.global	Counter_1_ReadCompare
 249              		.code	16
 250              		.thumb_func
 251              		.type	Counter_1_ReadCompare, %function
 252              	Counter_1_ReadCompare:
 253              	.LFB12:
 474:.\Generated_Source\PSoC4/Counter_1.c **** 
 475:.\Generated_Source\PSoC4/Counter_1.c **** 
 476:.\Generated_Source\PSoC4/Counter_1.c **** /*******************************************************************************
 477:.\Generated_Source\PSoC4/Counter_1.c **** * Function Name: Counter_1_ReadCompare
 478:.\Generated_Source\PSoC4/Counter_1.c **** ********************************************************************************
 479:.\Generated_Source\PSoC4/Counter_1.c **** * Summary:
 480:.\Generated_Source\PSoC4/Counter_1.c **** * Returns the compare value.
 481:.\Generated_Source\PSoC4/Counter_1.c **** *
 482:.\Generated_Source\PSoC4/Counter_1.c **** * Parameters:  
 483:.\Generated_Source\PSoC4/Counter_1.c **** *  void:
 484:.\Generated_Source\PSoC4/Counter_1.c **** *
 485:.\Generated_Source\PSoC4/Counter_1.c **** * Return: 
 486:.\Generated_Source\PSoC4/Counter_1.c **** *  (uint16) Present compare value.
 487:.\Generated_Source\PSoC4/Counter_1.c **** *
 488:.\Generated_Source\PSoC4/Counter_1.c **** *******************************************************************************/
ARM GAS  C:\Users\Moses\AppData\Local\Temp\ccwg78q7.s 			page 14


 489:.\Generated_Source\PSoC4/Counter_1.c **** uint16 Counter_1_ReadCompare(void) 
 490:.\Generated_Source\PSoC4/Counter_1.c **** {
 254              		.loc 1 490 0
 255              		.cfi_startproc
 491:.\Generated_Source\PSoC4/Counter_1.c ****     return (CY_GET_REG16(Counter_1_COMPARE_LSB_PTR));
 256              		.loc 1 491 0
 257 0000 014B     		ldr	r3, .L28
 258 0002 1888     		ldrh	r0, [r3]
 259 0004 80B2     		uxth	r0, r0
 492:.\Generated_Source\PSoC4/Counter_1.c **** }
 260              		.loc 1 492 0
 261              		@ sp needed
 262 0006 7047     		bx	lr
 263              	.L29:
 264              		.align	2
 265              	.L28:
 266 0008 60100F40 		.word	1074729056
 267              		.cfi_endproc
 268              	.LFE12:
 269              		.size	Counter_1_ReadCompare, .-Counter_1_ReadCompare
 270              		.section	.text.Counter_1_ClearFIFO,"ax",%progbits
 271              		.align	2
 272              		.global	Counter_1_ClearFIFO
 273              		.code	16
 274              		.thumb_func
 275              		.type	Counter_1_ClearFIFO, %function
 276              	Counter_1_ClearFIFO:
 277              	.LFB13:
 493:.\Generated_Source\PSoC4/Counter_1.c **** 
 494:.\Generated_Source\PSoC4/Counter_1.c **** 
 495:.\Generated_Source\PSoC4/Counter_1.c **** #if (Counter_1_COMPARE_MODE_SOFTWARE)
 496:.\Generated_Source\PSoC4/Counter_1.c **** /*******************************************************************************
 497:.\Generated_Source\PSoC4/Counter_1.c **** * Function Name: Counter_1_SetCompareMode
 498:.\Generated_Source\PSoC4/Counter_1.c **** ********************************************************************************
 499:.\Generated_Source\PSoC4/Counter_1.c **** * Summary:
 500:.\Generated_Source\PSoC4/Counter_1.c **** *  Sets the software controlled Compare Mode.
 501:.\Generated_Source\PSoC4/Counter_1.c **** *
 502:.\Generated_Source\PSoC4/Counter_1.c **** * Parameters:
 503:.\Generated_Source\PSoC4/Counter_1.c **** *  compareMode:  Compare Mode Enumerated Type.
 504:.\Generated_Source\PSoC4/Counter_1.c **** *
 505:.\Generated_Source\PSoC4/Counter_1.c **** * Return:
 506:.\Generated_Source\PSoC4/Counter_1.c **** *  void
 507:.\Generated_Source\PSoC4/Counter_1.c **** *
 508:.\Generated_Source\PSoC4/Counter_1.c **** *******************************************************************************/
 509:.\Generated_Source\PSoC4/Counter_1.c **** void Counter_1_SetCompareMode(uint8 compareMode) 
 510:.\Generated_Source\PSoC4/Counter_1.c **** {
 511:.\Generated_Source\PSoC4/Counter_1.c ****     /* Clear the compare mode bits in the control register */
 512:.\Generated_Source\PSoC4/Counter_1.c ****     Counter_1_CONTROL &= ((uint8)(~Counter_1_CTRL_CMPMODE_MASK));
 513:.\Generated_Source\PSoC4/Counter_1.c ****     
 514:.\Generated_Source\PSoC4/Counter_1.c ****     /* Write the new setting */
 515:.\Generated_Source\PSoC4/Counter_1.c ****     Counter_1_CONTROL |= compareMode;
 516:.\Generated_Source\PSoC4/Counter_1.c **** }
 517:.\Generated_Source\PSoC4/Counter_1.c **** #endif  /* (Counter_1_COMPARE_MODE_SOFTWARE) */
 518:.\Generated_Source\PSoC4/Counter_1.c **** 
 519:.\Generated_Source\PSoC4/Counter_1.c **** 
 520:.\Generated_Source\PSoC4/Counter_1.c **** #if (Counter_1_CAPTURE_MODE_SOFTWARE)
 521:.\Generated_Source\PSoC4/Counter_1.c **** /*******************************************************************************
ARM GAS  C:\Users\Moses\AppData\Local\Temp\ccwg78q7.s 			page 15


 522:.\Generated_Source\PSoC4/Counter_1.c **** * Function Name: Counter_1_SetCaptureMode
 523:.\Generated_Source\PSoC4/Counter_1.c **** ********************************************************************************
 524:.\Generated_Source\PSoC4/Counter_1.c **** * Summary:
 525:.\Generated_Source\PSoC4/Counter_1.c **** *  Sets the software controlled Capture Mode.
 526:.\Generated_Source\PSoC4/Counter_1.c **** *
 527:.\Generated_Source\PSoC4/Counter_1.c **** * Parameters:
 528:.\Generated_Source\PSoC4/Counter_1.c **** *  captureMode:  Capture Mode Enumerated Type.
 529:.\Generated_Source\PSoC4/Counter_1.c **** *
 530:.\Generated_Source\PSoC4/Counter_1.c **** * Return:
 531:.\Generated_Source\PSoC4/Counter_1.c **** *  void
 532:.\Generated_Source\PSoC4/Counter_1.c **** *
 533:.\Generated_Source\PSoC4/Counter_1.c **** *******************************************************************************/
 534:.\Generated_Source\PSoC4/Counter_1.c **** void Counter_1_SetCaptureMode(uint8 captureMode) 
 535:.\Generated_Source\PSoC4/Counter_1.c **** {
 536:.\Generated_Source\PSoC4/Counter_1.c ****     /* Clear the capture mode bits in the control register */
 537:.\Generated_Source\PSoC4/Counter_1.c ****     Counter_1_CONTROL &= ((uint8)(~Counter_1_CTRL_CAPMODE_MASK));
 538:.\Generated_Source\PSoC4/Counter_1.c ****     
 539:.\Generated_Source\PSoC4/Counter_1.c ****     /* Write the new setting */
 540:.\Generated_Source\PSoC4/Counter_1.c ****     Counter_1_CONTROL |= ((uint8)((uint8)captureMode << Counter_1_CTRL_CAPMODE0_SHIFT));
 541:.\Generated_Source\PSoC4/Counter_1.c **** }
 542:.\Generated_Source\PSoC4/Counter_1.c **** #endif  /* (Counter_1_CAPTURE_MODE_SOFTWARE) */
 543:.\Generated_Source\PSoC4/Counter_1.c **** 
 544:.\Generated_Source\PSoC4/Counter_1.c **** 
 545:.\Generated_Source\PSoC4/Counter_1.c **** /*******************************************************************************
 546:.\Generated_Source\PSoC4/Counter_1.c **** * Function Name: Counter_1_ClearFIFO
 547:.\Generated_Source\PSoC4/Counter_1.c **** ********************************************************************************
 548:.\Generated_Source\PSoC4/Counter_1.c **** * Summary:
 549:.\Generated_Source\PSoC4/Counter_1.c **** *   This function clears all capture data from the capture FIFO
 550:.\Generated_Source\PSoC4/Counter_1.c **** *
 551:.\Generated_Source\PSoC4/Counter_1.c **** * Parameters:  
 552:.\Generated_Source\PSoC4/Counter_1.c **** *  void:
 553:.\Generated_Source\PSoC4/Counter_1.c **** *
 554:.\Generated_Source\PSoC4/Counter_1.c **** * Return: 
 555:.\Generated_Source\PSoC4/Counter_1.c **** *  None
 556:.\Generated_Source\PSoC4/Counter_1.c **** *
 557:.\Generated_Source\PSoC4/Counter_1.c **** *******************************************************************************/
 558:.\Generated_Source\PSoC4/Counter_1.c **** void Counter_1_ClearFIFO(void) 
 559:.\Generated_Source\PSoC4/Counter_1.c **** {
 278              		.loc 1 559 0
 279              		.cfi_startproc
 280 0000 10B5     		push	{r4, lr}
 281              		.cfi_def_cfa_offset 8
 282              		.cfi_offset 4, -8
 283              		.cfi_offset 14, -4
 560:.\Generated_Source\PSoC4/Counter_1.c **** 
 561:.\Generated_Source\PSoC4/Counter_1.c ****     while(0u != (Counter_1_ReadStatusRegister() & Counter_1_STATUS_FIFONEMP))
 284              		.loc 1 561 0
 285 0002 4024     		mov	r4, #64
 286 0004 01E0     		b	.L31
 287              	.L32:
 562:.\Generated_Source\PSoC4/Counter_1.c ****     {
 563:.\Generated_Source\PSoC4/Counter_1.c ****         (void)Counter_1_ReadCapture();
 288              		.loc 1 563 0
 289 0006 FFF7FEFF 		bl	Counter_1_ReadCapture
 290              	.LVL4:
 291              	.L31:
 561:.\Generated_Source\PSoC4/Counter_1.c ****     while(0u != (Counter_1_ReadStatusRegister() & Counter_1_STATUS_FIFONEMP))
ARM GAS  C:\Users\Moses\AppData\Local\Temp\ccwg78q7.s 			page 16


 292              		.loc 1 561 0 discriminator 1
 293 000a FFF7FEFF 		bl	Counter_1_ReadStatusRegister
 294              	.LVL5:
 295 000e 0442     		tst	r4, r0
 296 0010 F9D1     		bne	.L32
 564:.\Generated_Source\PSoC4/Counter_1.c ****     }
 565:.\Generated_Source\PSoC4/Counter_1.c **** 
 566:.\Generated_Source\PSoC4/Counter_1.c **** }
 297              		.loc 1 566 0
 298              		@ sp needed
 299 0012 10BD     		pop	{r4, pc}
 300              		.cfi_endproc
 301              	.LFE13:
 302              		.size	Counter_1_ClearFIFO, .-Counter_1_ClearFIFO
 303              		.section	.text.Counter_1_Init,"ax",%progbits
 304              		.align	2
 305              		.global	Counter_1_Init
 306              		.code	16
 307              		.thumb_func
 308              		.type	Counter_1_Init, %function
 309              	Counter_1_Init:
 310              	.LFB0:
  38:.\Generated_Source\PSoC4/Counter_1.c **** {
 311              		.loc 1 38 0
 312              		.cfi_startproc
 313 0000 08B5     		push	{r3, lr}
 314              		.cfi_def_cfa_offset 8
 315              		.cfi_offset 3, -8
 316              		.cfi_offset 14, -4
  96:.\Generated_Source\PSoC4/Counter_1.c ****             Counter_1_ClearFIFO();
 317              		.loc 1 96 0
 318 0002 FFF7FEFF 		bl	Counter_1_ClearFIFO
 319              	.LVL6:
 100:.\Generated_Source\PSoC4/Counter_1.c ****         Counter_1_WritePeriod(Counter_1_INIT_PERIOD_VALUE);
 320              		.loc 1 100 0
 321 0006 FF20     		mov	r0, #255
 322 0008 FFF7FEFF 		bl	Counter_1_WritePeriod
 323              	.LVL7:
 102:.\Generated_Source\PSoC4/Counter_1.c ****             Counter_1_WriteCounter(Counter_1_INIT_COUNTER_VALUE);
 324              		.loc 1 102 0
 325 000c 0020     		mov	r0, #0
 326 000e FFF7FEFF 		bl	Counter_1_WriteCounter
 327              	.LVL8:
 104:.\Generated_Source\PSoC4/Counter_1.c ****         Counter_1_SetInterruptMode(Counter_1_INIT_INTERRUPTS_MASK);
 328              		.loc 1 104 0
 329 0012 0020     		mov	r0, #0
 330 0014 FFF7FEFF 		bl	Counter_1_SetInterruptMode
 331              	.LVL9:
 108:.\Generated_Source\PSoC4/Counter_1.c ****             (void)Counter_1_ReadStatusRegister();
 332              		.loc 1 108 0
 333 0018 FFF7FEFF 		bl	Counter_1_ReadStatusRegister
 334              	.LVL10:
 110:.\Generated_Source\PSoC4/Counter_1.c ****             Counter_1_WriteCompare(Counter_1_INIT_COMPARE_VALUE);
 335              		.loc 1 110 0
 336 001c 8020     		mov	r0, #128
 337 001e FFF7FEFF 		bl	Counter_1_WriteCompare
 338              	.LVL11:
ARM GAS  C:\Users\Moses\AppData\Local\Temp\ccwg78q7.s 			page 17


 115:.\Generated_Source\PSoC4/Counter_1.c ****             Counter_1_interruptState = CyEnterCriticalSection();
 339              		.loc 1 115 0
 340 0022 FFF7FEFF 		bl	CyEnterCriticalSection
 341              	.LVL12:
 117:.\Generated_Source\PSoC4/Counter_1.c ****             Counter_1_STATUS_AUX_CTRL |= Counter_1_STATUS_ACTL_INT_EN_MASK;
 342              		.loc 1 117 0
 343 0026 044B     		ldr	r3, .L34
 344 0028 1978     		ldrb	r1, [r3]
 345 002a 1022     		mov	r2, #16
 346 002c 0A43     		orr	r2, r1
 347 002e 1A70     		strb	r2, [r3]
 120:.\Generated_Source\PSoC4/Counter_1.c ****             CyExitCriticalSection(Counter_1_interruptState);
 348              		.loc 1 120 0
 349 0030 FFF7FEFF 		bl	CyExitCriticalSection
 350              	.LVL13:
 123:.\Generated_Source\PSoC4/Counter_1.c **** }
 351              		.loc 1 123 0
 352              		@ sp needed
 353 0034 08BD     		pop	{r3, pc}
 354              	.L35:
 355 0036 C046     		.align	2
 356              	.L34:
 357 0038 91000F40 		.word	1074725009
 358              		.cfi_endproc
 359              	.LFE0:
 360              		.size	Counter_1_Init, .-Counter_1_Init
 361              		.section	.text.Counter_1_Start,"ax",%progbits
 362              		.align	2
 363              		.global	Counter_1_Start
 364              		.code	16
 365              		.thumb_func
 366              		.type	Counter_1_Start, %function
 367              	Counter_1_Start:
 368              	.LFB2:
 179:.\Generated_Source\PSoC4/Counter_1.c **** {
 369              		.loc 1 179 0
 370              		.cfi_startproc
 371 0000 08B5     		push	{r3, lr}
 372              		.cfi_def_cfa_offset 8
 373              		.cfi_offset 3, -8
 374              		.cfi_offset 14, -4
 180:.\Generated_Source\PSoC4/Counter_1.c ****     if(Counter_1_initVar == 0u)
 375              		.loc 1 180 0
 376 0002 054B     		ldr	r3, .L38
 377 0004 1B78     		ldrb	r3, [r3]
 378 0006 002B     		cmp	r3, #0
 379 0008 04D1     		bne	.L36
 182:.\Generated_Source\PSoC4/Counter_1.c ****         Counter_1_Init();
 380              		.loc 1 182 0
 381 000a FFF7FEFF 		bl	Counter_1_Init
 382              	.LVL14:
 184:.\Generated_Source\PSoC4/Counter_1.c ****         Counter_1_initVar = 1u; /* Clear this bit for Initialization */        
 383              		.loc 1 184 0
 384 000e 0122     		mov	r2, #1
 385 0010 014B     		ldr	r3, .L38
 386 0012 1A70     		strb	r2, [r3]
 387              	.L36:
ARM GAS  C:\Users\Moses\AppData\Local\Temp\ccwg78q7.s 			page 18


 189:.\Generated_Source\PSoC4/Counter_1.c **** }
 388              		.loc 1 189 0
 389              		@ sp needed
 390 0014 08BD     		pop	{r3, pc}
 391              	.L39:
 392 0016 C046     		.align	2
 393              	.L38:
 394 0018 00000000 		.word	.LANCHOR0
 395              		.cfi_endproc
 396              	.LFE2:
 397              		.size	Counter_1_Start, .-Counter_1_Start
 398              		.global	Counter_1_initVar
 399              		.bss
 400              		.set	.LANCHOR0,. + 0
 401              		.type	Counter_1_initVar, %object
 402              		.size	Counter_1_initVar, 1
 403              	Counter_1_initVar:
 404 0000 00       		.space	1
 405              		.text
 406              	.Letext0:
 407              		.file 2 ".\\Generated_Source\\PSoC4\\cytypes.h"
 408              		.file 3 ".\\Generated_Source\\PSoC4\\CyLib.h"