ARM GAS  C:\Users\Moses\AppData\Local\Temp\cc6fXAIh.s 			page 1


   1              		.cpu cortex-m0
   2              		.fpu softvfp
   3              		.eabi_attribute 20, 1
   4              		.eabi_attribute 21, 1
   5              		.eabi_attribute 23, 3
   6              		.eabi_attribute 24, 1
   7              		.eabi_attribute 25, 1
   8              		.eabi_attribute 26, 1
   9              		.eabi_attribute 30, 1
  10              		.eabi_attribute 34, 0
  11              		.eabi_attribute 18, 4
  12              		.code	16
  13              		.file	"cyfitter_cfg.c"
  14              		.text
  15              	.Ltext0:
  16              		.cfi_sections	.debug_frame
  17              		.section	.text.cfg_write_bytes32,"ax",%progbits
  18              		.align	2
  19              		.code	16
  20              		.thumb_func
  21              		.type	cfg_write_bytes32, %function
  22              	cfg_write_bytes32:
  23              	.LFB3:
  24              		.file 1 ".\\Generated_Source\\PSoC4\\cyfitter_cfg.c"
   1:.\Generated_Source\PSoC4/cyfitter_cfg.c **** /*******************************************************************************
   2:.\Generated_Source\PSoC4/cyfitter_cfg.c **** * FILENAME: cyfitter_cfg.c
   3:.\Generated_Source\PSoC4/cyfitter_cfg.c **** * 
   4:.\Generated_Source\PSoC4/cyfitter_cfg.c **** * PSoC Creator  3.2
   5:.\Generated_Source\PSoC4/cyfitter_cfg.c **** *
   6:.\Generated_Source\PSoC4/cyfitter_cfg.c **** * DESCRIPTION:
   7:.\Generated_Source\PSoC4/cyfitter_cfg.c **** * This file contains device initialization code.
   8:.\Generated_Source\PSoC4/cyfitter_cfg.c **** * Except for the user defined sections in CyClockStartupError(), this file should not be modified.
   9:.\Generated_Source\PSoC4/cyfitter_cfg.c **** * This file is automatically generated by PSoC Creator.
  10:.\Generated_Source\PSoC4/cyfitter_cfg.c **** *
  11:.\Generated_Source\PSoC4/cyfitter_cfg.c **** ********************************************************************************
  12:.\Generated_Source\PSoC4/cyfitter_cfg.c **** * Copyright (c) 2007-2015 Cypress Semiconductor.  All rights reserved.
  13:.\Generated_Source\PSoC4/cyfitter_cfg.c **** * You may use this file only in accordance with the license, terms, conditions, 
  14:.\Generated_Source\PSoC4/cyfitter_cfg.c **** * disclaimers, and limitations in the end user license agreement accompanying 
  15:.\Generated_Source\PSoC4/cyfitter_cfg.c **** * the software package with which this file was provided.
  16:.\Generated_Source\PSoC4/cyfitter_cfg.c **** ********************************************************************************/
  17:.\Generated_Source\PSoC4/cyfitter_cfg.c **** 
  18:.\Generated_Source\PSoC4/cyfitter_cfg.c **** #include <string.h>
  19:.\Generated_Source\PSoC4/cyfitter_cfg.c **** #include "cytypes.h"
  20:.\Generated_Source\PSoC4/cyfitter_cfg.c **** #include "cydevice_trm.h"
  21:.\Generated_Source\PSoC4/cyfitter_cfg.c **** #include "cyfitter.h"
  22:.\Generated_Source\PSoC4/cyfitter_cfg.c **** #include "CyLib.h"
  23:.\Generated_Source\PSoC4/cyfitter_cfg.c **** #include "CyLFClk.h"
  24:.\Generated_Source\PSoC4/cyfitter_cfg.c **** #include "cyfitter_cfg.h"
  25:.\Generated_Source\PSoC4/cyfitter_cfg.c **** 
  26:.\Generated_Source\PSoC4/cyfitter_cfg.c **** 
  27:.\Generated_Source\PSoC4/cyfitter_cfg.c **** #if defined(__GNUC__) || defined(__ARMCC_VERSION)
  28:.\Generated_Source\PSoC4/cyfitter_cfg.c ****     #define CYPACKED 
  29:.\Generated_Source\PSoC4/cyfitter_cfg.c ****     #define CYPACKED_ATTR __attribute__ ((packed))
  30:.\Generated_Source\PSoC4/cyfitter_cfg.c ****     #define CYALIGNED __attribute__ ((aligned))
  31:.\Generated_Source\PSoC4/cyfitter_cfg.c ****     #define CY_CFG_UNUSED __attribute__ ((unused))
  32:.\Generated_Source\PSoC4/cyfitter_cfg.c ****     #define CY_CFG_SECTION __attribute__ ((section(".psocinit")))
  33:.\Generated_Source\PSoC4/cyfitter_cfg.c ****     
ARM GAS  C:\Users\Moses\AppData\Local\Temp\cc6fXAIh.s 			page 2


  34:.\Generated_Source\PSoC4/cyfitter_cfg.c ****     #if defined(__ARMCC_VERSION)
  35:.\Generated_Source\PSoC4/cyfitter_cfg.c ****         #define CY_CFG_MEMORY_BARRIER() __memory_changed()
  36:.\Generated_Source\PSoC4/cyfitter_cfg.c ****     #else
  37:.\Generated_Source\PSoC4/cyfitter_cfg.c ****         #define CY_CFG_MEMORY_BARRIER() __sync_synchronize()
  38:.\Generated_Source\PSoC4/cyfitter_cfg.c ****     #endif
  39:.\Generated_Source\PSoC4/cyfitter_cfg.c ****     
  40:.\Generated_Source\PSoC4/cyfitter_cfg.c **** #elif defined(__ICCARM__)
  41:.\Generated_Source\PSoC4/cyfitter_cfg.c ****     #include <intrinsics.h>
  42:.\Generated_Source\PSoC4/cyfitter_cfg.c **** 
  43:.\Generated_Source\PSoC4/cyfitter_cfg.c ****     #define CYPACKED __packed
  44:.\Generated_Source\PSoC4/cyfitter_cfg.c ****     #define CYPACKED_ATTR 
  45:.\Generated_Source\PSoC4/cyfitter_cfg.c ****     #define CYALIGNED _Pragma("data_alignment=4")
  46:.\Generated_Source\PSoC4/cyfitter_cfg.c ****     #define CY_CFG_UNUSED _Pragma("diag_suppress=Pe177")
  47:.\Generated_Source\PSoC4/cyfitter_cfg.c ****     #define CY_CFG_SECTION _Pragma("location=\".psocinit\"")
  48:.\Generated_Source\PSoC4/cyfitter_cfg.c ****     
  49:.\Generated_Source\PSoC4/cyfitter_cfg.c ****     #define CY_CFG_MEMORY_BARRIER() __DMB()
  50:.\Generated_Source\PSoC4/cyfitter_cfg.c ****     
  51:.\Generated_Source\PSoC4/cyfitter_cfg.c **** #else
  52:.\Generated_Source\PSoC4/cyfitter_cfg.c ****     #error Unsupported toolchain
  53:.\Generated_Source\PSoC4/cyfitter_cfg.c **** #endif
  54:.\Generated_Source\PSoC4/cyfitter_cfg.c **** 
  55:.\Generated_Source\PSoC4/cyfitter_cfg.c **** 
  56:.\Generated_Source\PSoC4/cyfitter_cfg.c **** CY_CFG_UNUSED
  57:.\Generated_Source\PSoC4/cyfitter_cfg.c **** static void CYMEMZERO(void *s, size_t n);
  58:.\Generated_Source\PSoC4/cyfitter_cfg.c **** CY_CFG_UNUSED
  59:.\Generated_Source\PSoC4/cyfitter_cfg.c **** static void CYMEMZERO(void *s, size_t n)
  60:.\Generated_Source\PSoC4/cyfitter_cfg.c **** {
  61:.\Generated_Source\PSoC4/cyfitter_cfg.c **** 	(void)memset(s, 0, n);
  62:.\Generated_Source\PSoC4/cyfitter_cfg.c **** }
  63:.\Generated_Source\PSoC4/cyfitter_cfg.c **** CY_CFG_UNUSED
  64:.\Generated_Source\PSoC4/cyfitter_cfg.c **** static void CYCONFIGCPY(void *dest, const void *src, size_t n);
  65:.\Generated_Source\PSoC4/cyfitter_cfg.c **** CY_CFG_UNUSED
  66:.\Generated_Source\PSoC4/cyfitter_cfg.c **** static void CYCONFIGCPY(void *dest, const void *src, size_t n)
  67:.\Generated_Source\PSoC4/cyfitter_cfg.c **** {
  68:.\Generated_Source\PSoC4/cyfitter_cfg.c **** 	(void)memcpy(dest, src, n);
  69:.\Generated_Source\PSoC4/cyfitter_cfg.c **** }
  70:.\Generated_Source\PSoC4/cyfitter_cfg.c **** CY_CFG_UNUSED
  71:.\Generated_Source\PSoC4/cyfitter_cfg.c **** static void CYCONFIGCPYCODE(void *dest, const void *src, size_t n);
  72:.\Generated_Source\PSoC4/cyfitter_cfg.c **** CY_CFG_UNUSED
  73:.\Generated_Source\PSoC4/cyfitter_cfg.c **** static void CYCONFIGCPYCODE(void *dest, const void *src, size_t n)
  74:.\Generated_Source\PSoC4/cyfitter_cfg.c **** {
  75:.\Generated_Source\PSoC4/cyfitter_cfg.c **** 	(void)memcpy(dest, src, n);
  76:.\Generated_Source\PSoC4/cyfitter_cfg.c **** }
  77:.\Generated_Source\PSoC4/cyfitter_cfg.c **** 
  78:.\Generated_Source\PSoC4/cyfitter_cfg.c **** 
  79:.\Generated_Source\PSoC4/cyfitter_cfg.c **** 
  80:.\Generated_Source\PSoC4/cyfitter_cfg.c **** /* Clock startup error codes                                                   */
  81:.\Generated_Source\PSoC4/cyfitter_cfg.c **** #define CYCLOCKSTART_NO_ERROR    0u
  82:.\Generated_Source\PSoC4/cyfitter_cfg.c **** #define CYCLOCKSTART_XTAL_ERROR  1u
  83:.\Generated_Source\PSoC4/cyfitter_cfg.c **** #define CYCLOCKSTART_32KHZ_ERROR 2u
  84:.\Generated_Source\PSoC4/cyfitter_cfg.c **** #define CYCLOCKSTART_PLL_ERROR   3u
  85:.\Generated_Source\PSoC4/cyfitter_cfg.c **** 
  86:.\Generated_Source\PSoC4/cyfitter_cfg.c **** #ifdef CY_NEED_CYCLOCKSTARTUPERROR
  87:.\Generated_Source\PSoC4/cyfitter_cfg.c **** /*******************************************************************************
  88:.\Generated_Source\PSoC4/cyfitter_cfg.c **** * Function Name: CyClockStartupError
  89:.\Generated_Source\PSoC4/cyfitter_cfg.c **** ********************************************************************************
  90:.\Generated_Source\PSoC4/cyfitter_cfg.c **** * Summary:
ARM GAS  C:\Users\Moses\AppData\Local\Temp\cc6fXAIh.s 			page 3


  91:.\Generated_Source\PSoC4/cyfitter_cfg.c **** *  If an error is encountered during clock configuration (crystal startup error,
  92:.\Generated_Source\PSoC4/cyfitter_cfg.c **** *  PLL lock error, etc.), the system will end up here.  Unless reimplemented by
  93:.\Generated_Source\PSoC4/cyfitter_cfg.c **** *  the customer, this function will stop in an infinite loop.
  94:.\Generated_Source\PSoC4/cyfitter_cfg.c **** *
  95:.\Generated_Source\PSoC4/cyfitter_cfg.c **** * Parameters:
  96:.\Generated_Source\PSoC4/cyfitter_cfg.c **** *   void
  97:.\Generated_Source\PSoC4/cyfitter_cfg.c **** *
  98:.\Generated_Source\PSoC4/cyfitter_cfg.c **** * Return:
  99:.\Generated_Source\PSoC4/cyfitter_cfg.c **** *   void
 100:.\Generated_Source\PSoC4/cyfitter_cfg.c **** *
 101:.\Generated_Source\PSoC4/cyfitter_cfg.c **** *******************************************************************************/
 102:.\Generated_Source\PSoC4/cyfitter_cfg.c **** CY_CFG_UNUSED
 103:.\Generated_Source\PSoC4/cyfitter_cfg.c **** static void CyClockStartupError(uint8 errorCode);
 104:.\Generated_Source\PSoC4/cyfitter_cfg.c **** CY_CFG_UNUSED
 105:.\Generated_Source\PSoC4/cyfitter_cfg.c **** static void CyClockStartupError(uint8 errorCode)
 106:.\Generated_Source\PSoC4/cyfitter_cfg.c **** {
 107:.\Generated_Source\PSoC4/cyfitter_cfg.c ****     /* To remove the compiler warning if errorCode not used.                */
 108:.\Generated_Source\PSoC4/cyfitter_cfg.c ****     errorCode = errorCode;
 109:.\Generated_Source\PSoC4/cyfitter_cfg.c **** 
 110:.\Generated_Source\PSoC4/cyfitter_cfg.c ****     /* `#START CyClockStartupError` */
 111:.\Generated_Source\PSoC4/cyfitter_cfg.c **** 
 112:.\Generated_Source\PSoC4/cyfitter_cfg.c ****     /* If we have a clock startup error (bad MHz crystal, PLL lock, etc.),  */
 113:.\Generated_Source\PSoC4/cyfitter_cfg.c ****     /* we will end up here to allow the customer to implement something to  */
 114:.\Generated_Source\PSoC4/cyfitter_cfg.c ****     /* deal with the clock condition.                                       */
 115:.\Generated_Source\PSoC4/cyfitter_cfg.c **** 
 116:.\Generated_Source\PSoC4/cyfitter_cfg.c ****     /* `#END` */
 117:.\Generated_Source\PSoC4/cyfitter_cfg.c **** 
 118:.\Generated_Source\PSoC4/cyfitter_cfg.c ****     /* If nothing else, stop here since the clocks have not started         */
 119:.\Generated_Source\PSoC4/cyfitter_cfg.c ****     /* correctly.                                                           */
 120:.\Generated_Source\PSoC4/cyfitter_cfg.c ****     while(1) {}
 121:.\Generated_Source\PSoC4/cyfitter_cfg.c **** }
 122:.\Generated_Source\PSoC4/cyfitter_cfg.c **** #endif
 123:.\Generated_Source\PSoC4/cyfitter_cfg.c **** 
 124:.\Generated_Source\PSoC4/cyfitter_cfg.c **** #define CY_CFG_BASE_ADDR_COUNT 10u
 125:.\Generated_Source\PSoC4/cyfitter_cfg.c **** CYPACKED typedef struct
 126:.\Generated_Source\PSoC4/cyfitter_cfg.c **** {
 127:.\Generated_Source\PSoC4/cyfitter_cfg.c **** 	uint8 offset;
 128:.\Generated_Source\PSoC4/cyfitter_cfg.c **** 	uint8 value;
 129:.\Generated_Source\PSoC4/cyfitter_cfg.c **** } CYPACKED_ATTR cy_cfg_addrvalue_t;
 130:.\Generated_Source\PSoC4/cyfitter_cfg.c **** 
 131:.\Generated_Source\PSoC4/cyfitter_cfg.c **** 
 132:.\Generated_Source\PSoC4/cyfitter_cfg.c **** 
 133:.\Generated_Source\PSoC4/cyfitter_cfg.c **** /*******************************************************************************
 134:.\Generated_Source\PSoC4/cyfitter_cfg.c **** * Function Name: cfg_write_bytes32
 135:.\Generated_Source\PSoC4/cyfitter_cfg.c **** ********************************************************************************
 136:.\Generated_Source\PSoC4/cyfitter_cfg.c **** * Summary:
 137:.\Generated_Source\PSoC4/cyfitter_cfg.c **** *  This function is used for setting up the chip configuration areas that
 138:.\Generated_Source\PSoC4/cyfitter_cfg.c **** *  contain relatively sparse data.
 139:.\Generated_Source\PSoC4/cyfitter_cfg.c **** *
 140:.\Generated_Source\PSoC4/cyfitter_cfg.c **** * Parameters:
 141:.\Generated_Source\PSoC4/cyfitter_cfg.c **** *   void
 142:.\Generated_Source\PSoC4/cyfitter_cfg.c **** *
 143:.\Generated_Source\PSoC4/cyfitter_cfg.c **** * Return:
 144:.\Generated_Source\PSoC4/cyfitter_cfg.c **** *   void
 145:.\Generated_Source\PSoC4/cyfitter_cfg.c **** *
 146:.\Generated_Source\PSoC4/cyfitter_cfg.c **** *******************************************************************************/
 147:.\Generated_Source\PSoC4/cyfitter_cfg.c **** static void cfg_write_bytes32(const uint32 addr_table[], const cy_cfg_addrvalue_t data_table[]);
ARM GAS  C:\Users\Moses\AppData\Local\Temp\cc6fXAIh.s 			page 4


 148:.\Generated_Source\PSoC4/cyfitter_cfg.c **** static void cfg_write_bytes32(const uint32 addr_table[], const cy_cfg_addrvalue_t data_table[])
 149:.\Generated_Source\PSoC4/cyfitter_cfg.c **** {
  25              		.loc 1 149 0
  26              		.cfi_startproc
  27              	.LVL0:
  28 0000 F0B5     		push	{r4, r5, r6, r7, lr}
  29              		.cfi_def_cfa_offset 20
  30              		.cfi_offset 4, -20
  31              		.cfi_offset 5, -16
  32              		.cfi_offset 6, -12
  33              		.cfi_offset 7, -8
  34              		.cfi_offset 14, -4
  35              	.LVL1:
 150:.\Generated_Source\PSoC4/cyfitter_cfg.c **** 	/* For 32-bit little-endian architectures */
 151:.\Generated_Source\PSoC4/cyfitter_cfg.c **** 	uint32 i, j = 0u;
  36              		.loc 1 151 0
  37 0002 0022     		mov	r2, #0
 152:.\Generated_Source\PSoC4/cyfitter_cfg.c **** 	for (i = 0u; i < CY_CFG_BASE_ADDR_COUNT; i++)
  38              		.loc 1 152 0
  39 0004 0027     		mov	r7, #0
  40              	.LBB2:
 153:.\Generated_Source\PSoC4/cyfitter_cfg.c **** 	{
 154:.\Generated_Source\PSoC4/cyfitter_cfg.c **** 		uint32 baseAddr = addr_table[i];
 155:.\Generated_Source\PSoC4/cyfitter_cfg.c **** 		uint8 count = (uint8)baseAddr;
 156:.\Generated_Source\PSoC4/cyfitter_cfg.c **** 		baseAddr &= 0xFFFFFF00u;
  41              		.loc 1 156 0
  42 0006 FF23     		mov	r3, #255
  43 0008 9C46     		mov	ip, r3
  44              	.LBE2:
 152:.\Generated_Source\PSoC4/cyfitter_cfg.c **** 	for (i = 0u; i < CY_CFG_BASE_ADDR_COUNT; i++)
  45              		.loc 1 152 0
  46 000a 11E0     		b	.L2
  47              	.LVL2:
  48              	.L5:
  49              	.LBB3:
 154:.\Generated_Source\PSoC4/cyfitter_cfg.c **** 		uint32 baseAddr = addr_table[i];
  50              		.loc 1 154 0
  51 000c BB00     		lsl	r3, r7, #2
  52 000e C658     		ldr	r6, [r0, r3]
  53              	.LVL3:
 155:.\Generated_Source\PSoC4/cyfitter_cfg.c **** 		uint8 count = (uint8)baseAddr;
  54              		.loc 1 155 0
  55 0010 F3B2     		uxtb	r3, r6
  56              	.LVL4:
  57              		.loc 1 156 0
  58 0012 6446     		mov	r4, ip
  59 0014 A643     		bic	r6, r4
  60              	.LVL5:
 157:.\Generated_Source\PSoC4/cyfitter_cfg.c **** 		while (count != 0u)
  61              		.loc 1 157 0
  62 0016 08E0     		b	.L3
  63              	.L4:
 158:.\Generated_Source\PSoC4/cyfitter_cfg.c **** 		{
 159:.\Generated_Source\PSoC4/cyfitter_cfg.c **** 			CY_SET_XTND_REG8((void CYFAR *)(baseAddr + data_table[j].offset), data_table[j].value);
  64              		.loc 1 159 0
  65 0018 5400     		lsl	r4, r2, #1
  66 001a 0C19     		add	r4, r1, r4
ARM GAS  C:\Users\Moses\AppData\Local\Temp\cc6fXAIh.s 			page 5


  67 001c 2578     		ldrb	r5, [r4]
  68 001e AD19     		add	r5, r5, r6
  69 0020 6478     		ldrb	r4, [r4, #1]
  70 0022 2C70     		strb	r4, [r5]
 160:.\Generated_Source\PSoC4/cyfitter_cfg.c **** 			j++;
  71              		.loc 1 160 0
  72 0024 0132     		add	r2, r2, #1
  73              	.LVL6:
 161:.\Generated_Source\PSoC4/cyfitter_cfg.c **** 			count--;
  74              		.loc 1 161 0
  75 0026 013B     		sub	r3, r3, #1
  76              	.LVL7:
  77 0028 DBB2     		uxtb	r3, r3
  78              	.LVL8:
  79              	.L3:
 157:.\Generated_Source\PSoC4/cyfitter_cfg.c **** 		while (count != 0u)
  80              		.loc 1 157 0 discriminator 1
  81 002a 002B     		cmp	r3, #0
  82 002c F4D1     		bne	.L4
  83              	.LBE3:
 152:.\Generated_Source\PSoC4/cyfitter_cfg.c **** 	for (i = 0u; i < CY_CFG_BASE_ADDR_COUNT; i++)
  84              		.loc 1 152 0
  85 002e 0137     		add	r7, r7, #1
  86              	.LVL9:
  87              	.L2:
 152:.\Generated_Source\PSoC4/cyfitter_cfg.c **** 	for (i = 0u; i < CY_CFG_BASE_ADDR_COUNT; i++)
  88              		.loc 1 152 0 is_stmt 0 discriminator 1
  89 0030 092F     		cmp	r7, #9
  90 0032 EBD9     		bls	.L5
 162:.\Generated_Source\PSoC4/cyfitter_cfg.c **** 		}
 163:.\Generated_Source\PSoC4/cyfitter_cfg.c **** 	}
 164:.\Generated_Source\PSoC4/cyfitter_cfg.c **** }
  91              		.loc 1 164 0 is_stmt 1
  92              		@ sp needed
  93              	.LVL10:
  94 0034 F0BD     		pop	{r4, r5, r6, r7, pc}
  95              		.cfi_endproc
  96              	.LFE3:
  97              		.size	cfg_write_bytes32, .-cfg_write_bytes32
  98 0036 C046     		.section	.text.CYMEMZERO,"ax",%progbits
  99              		.align	2
 100              		.code	16
 101              		.thumb_func
 102              		.type	CYMEMZERO, %function
 103              	CYMEMZERO:
 104              	.LFB0:
  60:.\Generated_Source\PSoC4/cyfitter_cfg.c **** {
 105              		.loc 1 60 0
 106              		.cfi_startproc
 107              	.LVL11:
 108 0000 08B5     		push	{r3, lr}
 109              		.cfi_def_cfa_offset 8
 110              		.cfi_offset 3, -8
 111              		.cfi_offset 14, -4
 112 0002 0A1C     		mov	r2, r1
  61:.\Generated_Source\PSoC4/cyfitter_cfg.c **** 	(void)memset(s, 0, n);
 113              		.loc 1 61 0
ARM GAS  C:\Users\Moses\AppData\Local\Temp\cc6fXAIh.s 			page 6


 114 0004 0021     		mov	r1, #0
 115              	.LVL12:
 116 0006 FFF7FEFF 		bl	memset
 117              	.LVL13:
  62:.\Generated_Source\PSoC4/cyfitter_cfg.c **** }
 118              		.loc 1 62 0
 119              		@ sp needed
 120 000a 08BD     		pop	{r3, pc}
 121              		.cfi_endproc
 122              	.LFE0:
 123              		.size	CYMEMZERO, .-CYMEMZERO
 124              		.section	.psocinit,"ax",%progbits
 125              		.align	2
 126              		.code	16
 127              		.thumb_func
 128              		.type	ClockSetup, %function
 129              	ClockSetup:
 130              	.LFB4:
 165:.\Generated_Source\PSoC4/cyfitter_cfg.c **** 
 166:.\Generated_Source\PSoC4/cyfitter_cfg.c **** 
 167:.\Generated_Source\PSoC4/cyfitter_cfg.c **** /*******************************************************************************
 168:.\Generated_Source\PSoC4/cyfitter_cfg.c **** * Function Name: ClockSetup
 169:.\Generated_Source\PSoC4/cyfitter_cfg.c **** ********************************************************************************
 170:.\Generated_Source\PSoC4/cyfitter_cfg.c **** *
 171:.\Generated_Source\PSoC4/cyfitter_cfg.c **** * Summary:
 172:.\Generated_Source\PSoC4/cyfitter_cfg.c **** *   Performs the initialization of all of the clocks in the device based on the
 173:.\Generated_Source\PSoC4/cyfitter_cfg.c **** *   settings in the Clock tab of the DWR.  This includes enabling the requested
 174:.\Generated_Source\PSoC4/cyfitter_cfg.c **** *   clocks and setting the necessary dividers to produce the desired frequency. 
 175:.\Generated_Source\PSoC4/cyfitter_cfg.c **** *
 176:.\Generated_Source\PSoC4/cyfitter_cfg.c **** * Parameters:
 177:.\Generated_Source\PSoC4/cyfitter_cfg.c **** *   void
 178:.\Generated_Source\PSoC4/cyfitter_cfg.c **** *
 179:.\Generated_Source\PSoC4/cyfitter_cfg.c **** * Return:
 180:.\Generated_Source\PSoC4/cyfitter_cfg.c **** *   void
 181:.\Generated_Source\PSoC4/cyfitter_cfg.c **** *
 182:.\Generated_Source\PSoC4/cyfitter_cfg.c **** *******************************************************************************/
 183:.\Generated_Source\PSoC4/cyfitter_cfg.c **** static void ClockSetup(void);
 184:.\Generated_Source\PSoC4/cyfitter_cfg.c **** CY_CFG_SECTION
 185:.\Generated_Source\PSoC4/cyfitter_cfg.c **** static void ClockSetup(void)
 186:.\Generated_Source\PSoC4/cyfitter_cfg.c **** {
 131              		.loc 1 186 0
 132              		.cfi_startproc
 133 0000 10B5     		push	{r4, lr}
 134              		.cfi_def_cfa_offset 8
 135              		.cfi_offset 4, -8
 136              		.cfi_offset 14, -4
 187:.\Generated_Source\PSoC4/cyfitter_cfg.c **** 	/* Enable HALF_EN before trimming for the flash accelerator. */
 188:.\Generated_Source\PSoC4/cyfitter_cfg.c **** 	CY_SET_REG32((void CYXDATA *)(CYREG_CLK_SELECT), (CY_GET_REG32((void *)CYREG_CLK_SELECT) | 0x00040
 137              		.loc 1 188 0
 138 0002 124C     		ldr	r4, .L8
 139 0004 2268     		ldr	r2, [r4]
 140 0006 8023     		mov	r3, #128
 141 0008 DB02     		lsl	r3, r3, #11
 142 000a 1343     		orr	r3, r2
 143 000c 2360     		str	r3, [r4]
 189:.\Generated_Source\PSoC4/cyfitter_cfg.c **** 
 190:.\Generated_Source\PSoC4/cyfitter_cfg.c **** 	/* Setup and trim IMO based on desired frequency. */
ARM GAS  C:\Users\Moses\AppData\Local\Temp\cc6fXAIh.s 			page 7


 191:.\Generated_Source\PSoC4/cyfitter_cfg.c **** 	CySysClkWriteImoFreq(24u);
 144              		.loc 1 191 0
 145 000e 1820     		mov	r0, #24
 146 0010 FFF7FEFF 		bl	CySysClkWriteImoFreq
 147              	.LVL14:
 192:.\Generated_Source\PSoC4/cyfitter_cfg.c **** 
 193:.\Generated_Source\PSoC4/cyfitter_cfg.c **** 	/* Disable HALF_EN since it is not required at this IMO frequency. */
 194:.\Generated_Source\PSoC4/cyfitter_cfg.c **** 	CY_SET_REG32((void CYXDATA *)(CYREG_CLK_SELECT), (CY_GET_REG32((void *)CYREG_CLK_SELECT) & 0xFFFBF
 148              		.loc 1 194 0
 149 0014 2268     		ldr	r2, [r4]
 150 0016 0E4B     		ldr	r3, .L8+4
 151 0018 1340     		and	r3, r2
 152 001a 2360     		str	r3, [r4]
 195:.\Generated_Source\PSoC4/cyfitter_cfg.c **** 	/* CYDEV_CLK_ILO_CONFIG Starting address: CYDEV_CLK_ILO_CONFIG */
 196:.\Generated_Source\PSoC4/cyfitter_cfg.c **** 	CY_SET_XTND_REG32((void CYFAR *)(CYREG_CLK_ILO_CONFIG), 0x80000006u);
 153              		.loc 1 196 0
 154 001c 0D4A     		ldr	r2, .L8+8
 155 001e 0E4B     		ldr	r3, .L8+12
 156 0020 1A60     		str	r2, [r3]
 197:.\Generated_Source\PSoC4/cyfitter_cfg.c **** 
 198:.\Generated_Source\PSoC4/cyfitter_cfg.c **** 
 199:.\Generated_Source\PSoC4/cyfitter_cfg.c **** 	/* CYDEV_CLK_SELECT00 Starting address: CYDEV_CLK_SELECT00 */
 200:.\Generated_Source\PSoC4/cyfitter_cfg.c **** 	CY_SET_XTND_REG32((void CYFAR *)(CYREG_CLK_SELECT12), 0x00000010u);
 157              		.loc 1 200 0
 158 0022 1022     		mov	r2, #16
 159 0024 0D4B     		ldr	r3, .L8+16
 160 0026 1A60     		str	r2, [r3]
 201:.\Generated_Source\PSoC4/cyfitter_cfg.c **** 
 202:.\Generated_Source\PSoC4/cyfitter_cfg.c **** 	/* CYDEV_CLK_IMO_CONFIG Starting address: CYDEV_CLK_IMO_CONFIG */
 203:.\Generated_Source\PSoC4/cyfitter_cfg.c **** 	CY_SET_XTND_REG32((void CYFAR *)(CYREG_CLK_IMO_CONFIG), 0x80000000u);
 161              		.loc 1 203 0
 162 0028 8022     		mov	r2, #128
 163 002a 1206     		lsl	r2, r2, #24
 164 002c 0C4B     		ldr	r3, .L8+20
 165 002e 1A60     		str	r2, [r3]
 204:.\Generated_Source\PSoC4/cyfitter_cfg.c **** 
 205:.\Generated_Source\PSoC4/cyfitter_cfg.c **** 	/* CYDEV_CLK_DIVIDER_A00 Starting address: CYDEV_CLK_DIVIDER_A00 */
 206:.\Generated_Source\PSoC4/cyfitter_cfg.c **** 	CY_SET_XTND_REG32((void CYFAR *)(CYREG_CLK_DIVIDER_A00), 0x80000017u);
 166              		.loc 1 206 0
 167 0030 0C4A     		ldr	r2, .L8+24
 168 0032 0D4B     		ldr	r3, .L8+28
 169 0034 1A60     		str	r2, [r3]
 207:.\Generated_Source\PSoC4/cyfitter_cfg.c **** 
 208:.\Generated_Source\PSoC4/cyfitter_cfg.c **** 	(void)CyIntSetVector(9u, &CySysWdtIsr);
 170              		.loc 1 208 0
 171 0036 0920     		mov	r0, #9
 172 0038 0C49     		ldr	r1, .L8+32
 173 003a FFF7FEFF 		bl	CyIntSetVector
 174              	.LVL15:
 209:.\Generated_Source\PSoC4/cyfitter_cfg.c **** 	CyIntEnable(9u);
 175              		.loc 1 209 0
 176 003e 0920     		mov	r0, #9
 177 0040 FFF7FEFF 		bl	CyIntEnable
 178              	.LVL16:
 210:.\Generated_Source\PSoC4/cyfitter_cfg.c **** 	CY_SET_XTND_REG32((void CYFAR *)(CYREG_WDT_CONFIG), 0x00000000u);
 179              		.loc 1 210 0
 180 0044 0022     		mov	r2, #0
ARM GAS  C:\Users\Moses\AppData\Local\Temp\cc6fXAIh.s 			page 8


 181 0046 0A4B     		ldr	r3, .L8+36
 182 0048 1A60     		str	r2, [r3]
 211:.\Generated_Source\PSoC4/cyfitter_cfg.c **** }
 183              		.loc 1 211 0
 184              		@ sp needed
 185 004a 10BD     		pop	{r4, pc}
 186              	.L9:
 187              		.align	2
 188              	.L8:
 189 004c 00010B40 		.word	1074462976
 190 0050 FFFFFBFF 		.word	-262145
 191 0054 06000080 		.word	-2147483642
 192 0058 04010B40 		.word	1074462980
 193 005c 30020240 		.word	1073873456
 194 0060 08010B40 		.word	1074462984
 195 0064 17000080 		.word	-2147483625
 196 0068 00000240 		.word	1073872896
 197 006c 00000000 		.word	CySysWdtIsr
 198 0070 0C020B40 		.word	1074463244
 199              		.cfi_endproc
 200              	.LFE4:
 201              		.size	ClockSetup, .-ClockSetup
 202              		.section	.text.SetAnalogRoutingPumps,"ax",%progbits
 203              		.align	2
 204              		.global	SetAnalogRoutingPumps
 205              		.code	16
 206              		.thumb_func
 207              		.type	SetAnalogRoutingPumps, %function
 208              	SetAnalogRoutingPumps:
 209              	.LFB6:
 212:.\Generated_Source\PSoC4/cyfitter_cfg.c **** 
 213:.\Generated_Source\PSoC4/cyfitter_cfg.c **** 
 214:.\Generated_Source\PSoC4/cyfitter_cfg.c **** /* Analog API Functions */
 215:.\Generated_Source\PSoC4/cyfitter_cfg.c **** 
 216:.\Generated_Source\PSoC4/cyfitter_cfg.c **** 
 217:.\Generated_Source\PSoC4/cyfitter_cfg.c **** /*******************************************************************************
 218:.\Generated_Source\PSoC4/cyfitter_cfg.c **** * Function Name: AnalogSetDefault
 219:.\Generated_Source\PSoC4/cyfitter_cfg.c **** ********************************************************************************
 220:.\Generated_Source\PSoC4/cyfitter_cfg.c **** *
 221:.\Generated_Source\PSoC4/cyfitter_cfg.c **** * Summary:
 222:.\Generated_Source\PSoC4/cyfitter_cfg.c **** *  Sets up the analog portions of the chip to default values based on chip
 223:.\Generated_Source\PSoC4/cyfitter_cfg.c **** *  configuration options from the project.
 224:.\Generated_Source\PSoC4/cyfitter_cfg.c **** *
 225:.\Generated_Source\PSoC4/cyfitter_cfg.c **** * Parameters:
 226:.\Generated_Source\PSoC4/cyfitter_cfg.c **** *  void
 227:.\Generated_Source\PSoC4/cyfitter_cfg.c **** *
 228:.\Generated_Source\PSoC4/cyfitter_cfg.c **** * Return:
 229:.\Generated_Source\PSoC4/cyfitter_cfg.c **** *  void
 230:.\Generated_Source\PSoC4/cyfitter_cfg.c **** *
 231:.\Generated_Source\PSoC4/cyfitter_cfg.c **** *******************************************************************************/
 232:.\Generated_Source\PSoC4/cyfitter_cfg.c **** static void AnalogSetDefault(void);
 233:.\Generated_Source\PSoC4/cyfitter_cfg.c **** static void AnalogSetDefault(void)
 234:.\Generated_Source\PSoC4/cyfitter_cfg.c **** {
 235:.\Generated_Source\PSoC4/cyfitter_cfg.c **** 	SetAnalogRoutingPumps(1);
 236:.\Generated_Source\PSoC4/cyfitter_cfg.c **** }
 237:.\Generated_Source\PSoC4/cyfitter_cfg.c **** 
 238:.\Generated_Source\PSoC4/cyfitter_cfg.c **** 
ARM GAS  C:\Users\Moses\AppData\Local\Temp\cc6fXAIh.s 			page 9


 239:.\Generated_Source\PSoC4/cyfitter_cfg.c **** /*******************************************************************************
 240:.\Generated_Source\PSoC4/cyfitter_cfg.c **** * Function Name: SetAnalogRoutingPumps
 241:.\Generated_Source\PSoC4/cyfitter_cfg.c **** ********************************************************************************
 242:.\Generated_Source\PSoC4/cyfitter_cfg.c **** *
 243:.\Generated_Source\PSoC4/cyfitter_cfg.c **** * Summary:
 244:.\Generated_Source\PSoC4/cyfitter_cfg.c **** * Enables or disables the analog pumps feeding analog routing switches.
 245:.\Generated_Source\PSoC4/cyfitter_cfg.c **** * Intended to be called at startup, based on the Vdda system configuration;
 246:.\Generated_Source\PSoC4/cyfitter_cfg.c **** * may be called during operation when the user informs us that the Vdda voltage crossed the pump th
 247:.\Generated_Source\PSoC4/cyfitter_cfg.c **** *
 248:.\Generated_Source\PSoC4/cyfitter_cfg.c **** * Parameters:
 249:.\Generated_Source\PSoC4/cyfitter_cfg.c **** *  enabled - 1 to enable the pumps, 0 to disable the pumps
 250:.\Generated_Source\PSoC4/cyfitter_cfg.c **** *
 251:.\Generated_Source\PSoC4/cyfitter_cfg.c **** * Return:
 252:.\Generated_Source\PSoC4/cyfitter_cfg.c **** *  void
 253:.\Generated_Source\PSoC4/cyfitter_cfg.c **** *
 254:.\Generated_Source\PSoC4/cyfitter_cfg.c **** *******************************************************************************/
 255:.\Generated_Source\PSoC4/cyfitter_cfg.c **** void SetAnalogRoutingPumps(uint8 enabled)
 256:.\Generated_Source\PSoC4/cyfitter_cfg.c **** {
 210              		.loc 1 256 0
 211              		.cfi_startproc
 212              	.LVL17:
 257:.\Generated_Source\PSoC4/cyfitter_cfg.c **** 	uint32 regValue = CY_GET_XTND_REG32((void *)(CYREG_SAR_PUMP_CTRL));
 213              		.loc 1 257 0
 214 0000 0C4B     		ldr	r3, .L15
 215 0002 1B68     		ldr	r3, [r3]
 216              	.LVL18:
 258:.\Generated_Source\PSoC4/cyfitter_cfg.c **** 	if (enabled != 0u)
 217              		.loc 1 258 0
 218 0004 0028     		cmp	r0, #0
 219 0006 03D0     		beq	.L11
 259:.\Generated_Source\PSoC4/cyfitter_cfg.c **** 	{
 260:.\Generated_Source\PSoC4/cyfitter_cfg.c **** 		regValue |= 0x80000000u;
 220              		.loc 1 260 0
 221 0008 8022     		mov	r2, #128
 222 000a 1206     		lsl	r2, r2, #24
 223 000c 1A43     		orr	r2, r3
 224              	.LVL19:
 225 000e 01E0     		b	.L12
 226              	.LVL20:
 227              	.L11:
 261:.\Generated_Source\PSoC4/cyfitter_cfg.c **** 	}
 262:.\Generated_Source\PSoC4/cyfitter_cfg.c **** 	else
 263:.\Generated_Source\PSoC4/cyfitter_cfg.c **** 	{
 264:.\Generated_Source\PSoC4/cyfitter_cfg.c **** 		regValue &= ~0x80000000u;
 228              		.loc 1 264 0
 229 0010 5A00     		lsl	r2, r3, #1
 230 0012 5208     		lsr	r2, r2, #1
 231              	.LVL21:
 232              	.L12:
 265:.\Generated_Source\PSoC4/cyfitter_cfg.c **** 	}
 266:.\Generated_Source\PSoC4/cyfitter_cfg.c **** 	CY_SET_XTND_REG32((void *)(CYREG_SAR_PUMP_CTRL), regValue);
 233              		.loc 1 266 0
 234 0014 074B     		ldr	r3, .L15
 235 0016 1A60     		str	r2, [r3]
 267:.\Generated_Source\PSoC4/cyfitter_cfg.c **** 	regValue = CY_GET_XTND_REG32((void *)(CYREG_CLK_IMO_CONFIG));
 236              		.loc 1 267 0
 237 0018 074B     		ldr	r3, .L15+4
ARM GAS  C:\Users\Moses\AppData\Local\Temp\cc6fXAIh.s 			page 10


 238 001a 1B68     		ldr	r3, [r3]
 239              	.LVL22:
 268:.\Generated_Source\PSoC4/cyfitter_cfg.c **** 	if (enabled != 0u)
 240              		.loc 1 268 0
 241 001c 0028     		cmp	r0, #0
 242 001e 03D0     		beq	.L13
 269:.\Generated_Source\PSoC4/cyfitter_cfg.c **** 	{
 270:.\Generated_Source\PSoC4/cyfitter_cfg.c **** 		regValue |= 0x02000000u;
 243              		.loc 1 270 0
 244 0020 8022     		mov	r2, #128
 245 0022 9204     		lsl	r2, r2, #18
 246 0024 1A43     		orr	r2, r3
 247              	.LVL23:
 248 0026 01E0     		b	.L14
 249              	.LVL24:
 250              	.L13:
 271:.\Generated_Source\PSoC4/cyfitter_cfg.c **** 	}
 272:.\Generated_Source\PSoC4/cyfitter_cfg.c **** 	else
 273:.\Generated_Source\PSoC4/cyfitter_cfg.c **** 	{
 274:.\Generated_Source\PSoC4/cyfitter_cfg.c **** 		regValue &= ~0x02000000u;
 251              		.loc 1 274 0
 252 0028 044A     		ldr	r2, .L15+8
 253 002a 1A40     		and	r2, r3
 254              	.LVL25:
 255              	.L14:
 275:.\Generated_Source\PSoC4/cyfitter_cfg.c **** 	}
 276:.\Generated_Source\PSoC4/cyfitter_cfg.c **** 	CY_SET_XTND_REG32((void *)(CYREG_CLK_IMO_CONFIG), regValue);
 256              		.loc 1 276 0
 257 002c 024B     		ldr	r3, .L15+4
 258 002e 1A60     		str	r2, [r3]
 277:.\Generated_Source\PSoC4/cyfitter_cfg.c **** }
 259              		.loc 1 277 0
 260              		@ sp needed
 261 0030 7047     		bx	lr
 262              	.L16:
 263 0032 C046     		.align	2
 264              	.L15:
 265 0034 80031A40 		.word	1075446656
 266 0038 08010B40 		.word	1074462984
 267 003c FFFFFFFD 		.word	-33554433
 268              		.cfi_endproc
 269              	.LFE6:
 270              		.size	SetAnalogRoutingPumps, .-SetAnalogRoutingPumps
 271              		.section	.text.AnalogSetDefault,"ax",%progbits
 272              		.align	2
 273              		.code	16
 274              		.thumb_func
 275              		.type	AnalogSetDefault, %function
 276              	AnalogSetDefault:
 277              	.LFB5:
 234:.\Generated_Source\PSoC4/cyfitter_cfg.c **** {
 278              		.loc 1 234 0
 279              		.cfi_startproc
 280 0000 08B5     		push	{r3, lr}
 281              		.cfi_def_cfa_offset 8
 282              		.cfi_offset 3, -8
 283              		.cfi_offset 14, -4
ARM GAS  C:\Users\Moses\AppData\Local\Temp\cc6fXAIh.s 			page 11


 235:.\Generated_Source\PSoC4/cyfitter_cfg.c **** 	SetAnalogRoutingPumps(1);
 284              		.loc 1 235 0
 285 0002 0120     		mov	r0, #1
 286 0004 FFF7FEFF 		bl	SetAnalogRoutingPumps
 287              	.LVL26:
 236:.\Generated_Source\PSoC4/cyfitter_cfg.c **** }
 288              		.loc 1 236 0
 289              		@ sp needed
 290 0008 08BD     		pop	{r3, pc}
 291              		.cfi_endproc
 292              	.LFE5:
 293              		.size	AnalogSetDefault, .-AnalogSetDefault
 294 000a C046     		.section	.psocinit
 295              		.align	2
 296              		.global	cyfitter_cfg
 297              		.code	16
 298              		.thumb_func
 299              		.type	cyfitter_cfg, %function
 300              	cyfitter_cfg:
 301              	.LFB7:
 278:.\Generated_Source\PSoC4/cyfitter_cfg.c **** 
 279:.\Generated_Source\PSoC4/cyfitter_cfg.c **** #define CY_AMUX_UNUSED CYREG_CM0_ROM_DWT
 280:.\Generated_Source\PSoC4/cyfitter_cfg.c **** 
 281:.\Generated_Source\PSoC4/cyfitter_cfg.c **** 
 282:.\Generated_Source\PSoC4/cyfitter_cfg.c **** /*******************************************************************************
 283:.\Generated_Source\PSoC4/cyfitter_cfg.c **** * Function Name: cyfitter_cfg
 284:.\Generated_Source\PSoC4/cyfitter_cfg.c **** ********************************************************************************
 285:.\Generated_Source\PSoC4/cyfitter_cfg.c **** * Summary:
 286:.\Generated_Source\PSoC4/cyfitter_cfg.c **** *  This function is called by the start-up code for the selected device. It
 287:.\Generated_Source\PSoC4/cyfitter_cfg.c **** *  performs all of the necessary device configuration based on the design
 288:.\Generated_Source\PSoC4/cyfitter_cfg.c **** *  settings.  This includes settings from the Design Wide Resources (DWR) such
 289:.\Generated_Source\PSoC4/cyfitter_cfg.c **** *  as Clocks and Pins as well as any component configuration that is necessary.
 290:.\Generated_Source\PSoC4/cyfitter_cfg.c **** *
 291:.\Generated_Source\PSoC4/cyfitter_cfg.c **** * Parameters:  
 292:.\Generated_Source\PSoC4/cyfitter_cfg.c **** *   void
 293:.\Generated_Source\PSoC4/cyfitter_cfg.c **** *
 294:.\Generated_Source\PSoC4/cyfitter_cfg.c **** * Return:
 295:.\Generated_Source\PSoC4/cyfitter_cfg.c **** *   void
 296:.\Generated_Source\PSoC4/cyfitter_cfg.c **** *
 297:.\Generated_Source\PSoC4/cyfitter_cfg.c **** *******************************************************************************/
 298:.\Generated_Source\PSoC4/cyfitter_cfg.c **** CY_CFG_SECTION
 299:.\Generated_Source\PSoC4/cyfitter_cfg.c **** void cyfitter_cfg(void)
 300:.\Generated_Source\PSoC4/cyfitter_cfg.c **** {
 302              		.loc 1 300 0
 303              		.cfi_startproc
 304 0074 38B5     		push	{r3, r4, r5, lr}
 305              		.cfi_def_cfa_offset 16
 306              		.cfi_offset 3, -16
 307              		.cfi_offset 4, -12
 308              		.cfi_offset 5, -8
 309              		.cfi_offset 14, -4
 301:.\Generated_Source\PSoC4/cyfitter_cfg.c **** 	/* Disable interrupts by default. Let user enable if/when they want. */
 302:.\Generated_Source\PSoC4/cyfitter_cfg.c **** 	CyGlobalIntDisable;
 310              		.loc 1 302 0
 311              	@ 302 ".\Generated_Source\PSoC4\cyfitter_cfg.c" 1
 312 0076 72B6     		CPSID   i
 313              	@ 0 "" 2
ARM GAS  C:\Users\Moses\AppData\Local\Temp\cc6fXAIh.s 			page 12


 314              	.LVL27:
 315              		.code	16
 316              	.LBB4:
 303:.\Generated_Source\PSoC4/cyfitter_cfg.c **** 
 304:.\Generated_Source\PSoC4/cyfitter_cfg.c **** 	{
 305:.\Generated_Source\PSoC4/cyfitter_cfg.c **** 		static const uint32 CYCODE cy_cfg_addr_table[] = {
 306:.\Generated_Source\PSoC4/cyfitter_cfg.c **** 			0x400F0001u, /* Base address: 0x400F0000 Count: 1 */
 307:.\Generated_Source\PSoC4/cyfitter_cfg.c **** 			0x400F3056u, /* Base address: 0x400F3000 Count: 86 */
 308:.\Generated_Source\PSoC4/cyfitter_cfg.c **** 			0x400F312Bu, /* Base address: 0x400F3100 Count: 43 */
 309:.\Generated_Source\PSoC4/cyfitter_cfg.c **** 			0x400F3206u, /* Base address: 0x400F3200 Count: 6 */
 310:.\Generated_Source\PSoC4/cyfitter_cfg.c **** 			0x400F3308u, /* Base address: 0x400F3300 Count: 8 */
 311:.\Generated_Source\PSoC4/cyfitter_cfg.c **** 			0x400F4002u, /* Base address: 0x400F4000 Count: 2 */
 312:.\Generated_Source\PSoC4/cyfitter_cfg.c **** 			0x400F4102u, /* Base address: 0x400F4100 Count: 2 */
 313:.\Generated_Source\PSoC4/cyfitter_cfg.c **** 			0x400F4205u, /* Base address: 0x400F4200 Count: 5 */
 314:.\Generated_Source\PSoC4/cyfitter_cfg.c **** 			0x400F4303u, /* Base address: 0x400F4300 Count: 3 */
 315:.\Generated_Source\PSoC4/cyfitter_cfg.c **** 			0x400F6002u, /* Base address: 0x400F6000 Count: 2 */
 316:.\Generated_Source\PSoC4/cyfitter_cfg.c **** 		};
 317:.\Generated_Source\PSoC4/cyfitter_cfg.c **** 
 318:.\Generated_Source\PSoC4/cyfitter_cfg.c **** 		static const cy_cfg_addrvalue_t CYCODE cy_cfg_data_table[] = {
 319:.\Generated_Source\PSoC4/cyfitter_cfg.c **** 			{0x81u, 0x77u},
 320:.\Generated_Source\PSoC4/cyfitter_cfg.c **** 			{0x02u, 0x01u},
 321:.\Generated_Source\PSoC4/cyfitter_cfg.c **** 			{0x25u, 0x01u},
 322:.\Generated_Source\PSoC4/cyfitter_cfg.c **** 			{0x2Eu, 0x02u},
 323:.\Generated_Source\PSoC4/cyfitter_cfg.c **** 			{0x2Fu, 0x01u},
 324:.\Generated_Source\PSoC4/cyfitter_cfg.c **** 			{0x30u, 0x02u},
 325:.\Generated_Source\PSoC4/cyfitter_cfg.c **** 			{0x31u, 0x01u},
 326:.\Generated_Source\PSoC4/cyfitter_cfg.c **** 			{0x32u, 0x01u},
 327:.\Generated_Source\PSoC4/cyfitter_cfg.c **** 			{0x3Fu, 0x01u},
 328:.\Generated_Source\PSoC4/cyfitter_cfg.c **** 			{0x40u, 0x45u},
 329:.\Generated_Source\PSoC4/cyfitter_cfg.c **** 			{0x41u, 0x02u},
 330:.\Generated_Source\PSoC4/cyfitter_cfg.c **** 			{0x42u, 0x01u},
 331:.\Generated_Source\PSoC4/cyfitter_cfg.c **** 			{0x49u, 0xFFu},
 332:.\Generated_Source\PSoC4/cyfitter_cfg.c **** 			{0x4Au, 0xFFu},
 333:.\Generated_Source\PSoC4/cyfitter_cfg.c **** 			{0x4Bu, 0xFFu},
 334:.\Generated_Source\PSoC4/cyfitter_cfg.c **** 			{0x4Du, 0xA0u},
 335:.\Generated_Source\PSoC4/cyfitter_cfg.c **** 			{0x4Fu, 0x01u},
 336:.\Generated_Source\PSoC4/cyfitter_cfg.c **** 			{0x50u, 0x18u},
 337:.\Generated_Source\PSoC4/cyfitter_cfg.c **** 			{0x58u, 0x04u},
 338:.\Generated_Source\PSoC4/cyfitter_cfg.c **** 			{0x59u, 0x04u},
 339:.\Generated_Source\PSoC4/cyfitter_cfg.c **** 			{0x5Au, 0x04u},
 340:.\Generated_Source\PSoC4/cyfitter_cfg.c **** 			{0x5Cu, 0x09u},
 341:.\Generated_Source\PSoC4/cyfitter_cfg.c **** 			{0x5Du, 0x09u},
 342:.\Generated_Source\PSoC4/cyfitter_cfg.c **** 			{0x5Fu, 0x01u},
 343:.\Generated_Source\PSoC4/cyfitter_cfg.c **** 			{0x60u, 0x40u},
 344:.\Generated_Source\PSoC4/cyfitter_cfg.c **** 			{0x62u, 0x80u},
 345:.\Generated_Source\PSoC4/cyfitter_cfg.c **** 			{0x64u, 0x40u},
 346:.\Generated_Source\PSoC4/cyfitter_cfg.c **** 			{0x65u, 0x40u},
 347:.\Generated_Source\PSoC4/cyfitter_cfg.c **** 			{0x66u, 0x80u},
 348:.\Generated_Source\PSoC4/cyfitter_cfg.c **** 			{0x68u, 0x40u},
 349:.\Generated_Source\PSoC4/cyfitter_cfg.c **** 			{0x6Au, 0x50u},
 350:.\Generated_Source\PSoC4/cyfitter_cfg.c **** 			{0x6Bu, 0xA8u},
 351:.\Generated_Source\PSoC4/cyfitter_cfg.c **** 			{0x6Cu, 0x40u},
 352:.\Generated_Source\PSoC4/cyfitter_cfg.c **** 			{0x6Du, 0x20u},
 353:.\Generated_Source\PSoC4/cyfitter_cfg.c **** 			{0x6Eu, 0x50u},
 354:.\Generated_Source\PSoC4/cyfitter_cfg.c **** 			{0x6Fu, 0xA8u},
 355:.\Generated_Source\PSoC4/cyfitter_cfg.c **** 			{0x80u, 0x04u},
 356:.\Generated_Source\PSoC4/cyfitter_cfg.c **** 			{0x82u, 0x18u},
ARM GAS  C:\Users\Moses\AppData\Local\Temp\cc6fXAIh.s 			page 13


 357:.\Generated_Source\PSoC4/cyfitter_cfg.c **** 			{0x83u, 0x01u},
 358:.\Generated_Source\PSoC4/cyfitter_cfg.c **** 			{0x8Eu, 0x01u},
 359:.\Generated_Source\PSoC4/cyfitter_cfg.c **** 			{0x94u, 0x08u},
 360:.\Generated_Source\PSoC4/cyfitter_cfg.c **** 			{0x96u, 0x04u},
 361:.\Generated_Source\PSoC4/cyfitter_cfg.c **** 			{0x98u, 0x01u},
 362:.\Generated_Source\PSoC4/cyfitter_cfg.c **** 			{0xADu, 0x01u},
 363:.\Generated_Source\PSoC4/cyfitter_cfg.c **** 			{0xAEu, 0x03u},
 364:.\Generated_Source\PSoC4/cyfitter_cfg.c **** 			{0xB0u, 0x01u},
 365:.\Generated_Source\PSoC4/cyfitter_cfg.c **** 			{0xB2u, 0x10u},
 366:.\Generated_Source\PSoC4/cyfitter_cfg.c **** 			{0xB4u, 0x02u},
 367:.\Generated_Source\PSoC4/cyfitter_cfg.c **** 			{0xB5u, 0x01u},
 368:.\Generated_Source\PSoC4/cyfitter_cfg.c **** 			{0xB6u, 0x0Cu},
 369:.\Generated_Source\PSoC4/cyfitter_cfg.c **** 			{0xBBu, 0x03u},
 370:.\Generated_Source\PSoC4/cyfitter_cfg.c **** 			{0xBEu, 0x41u},
 371:.\Generated_Source\PSoC4/cyfitter_cfg.c **** 			{0xBFu, 0x10u},
 372:.\Generated_Source\PSoC4/cyfitter_cfg.c **** 			{0xC0u, 0x45u},
 373:.\Generated_Source\PSoC4/cyfitter_cfg.c **** 			{0xC1u, 0x02u},
 374:.\Generated_Source\PSoC4/cyfitter_cfg.c **** 			{0xC2u, 0x01u},
 375:.\Generated_Source\PSoC4/cyfitter_cfg.c **** 			{0xC5u, 0x0Cu},
 376:.\Generated_Source\PSoC4/cyfitter_cfg.c **** 			{0xC6u, 0x25u},
 377:.\Generated_Source\PSoC4/cyfitter_cfg.c **** 			{0xC7u, 0x0Eu},
 378:.\Generated_Source\PSoC4/cyfitter_cfg.c **** 			{0xC8u, 0x3Du},
 379:.\Generated_Source\PSoC4/cyfitter_cfg.c **** 			{0xC9u, 0xFFu},
 380:.\Generated_Source\PSoC4/cyfitter_cfg.c **** 			{0xCAu, 0xFFu},
 381:.\Generated_Source\PSoC4/cyfitter_cfg.c **** 			{0xCBu, 0xFFu},
 382:.\Generated_Source\PSoC4/cyfitter_cfg.c **** 			{0xCDu, 0xAFu},
 383:.\Generated_Source\PSoC4/cyfitter_cfg.c **** 			{0xCEu, 0x07u},
 384:.\Generated_Source\PSoC4/cyfitter_cfg.c **** 			{0xCFu, 0x01u},
 385:.\Generated_Source\PSoC4/cyfitter_cfg.c **** 			{0xD0u, 0x18u},
 386:.\Generated_Source\PSoC4/cyfitter_cfg.c **** 			{0xD4u, 0x17u},
 387:.\Generated_Source\PSoC4/cyfitter_cfg.c **** 			{0xD8u, 0x04u},
 388:.\Generated_Source\PSoC4/cyfitter_cfg.c **** 			{0xD9u, 0x04u},
 389:.\Generated_Source\PSoC4/cyfitter_cfg.c **** 			{0xDAu, 0x04u},
 390:.\Generated_Source\PSoC4/cyfitter_cfg.c **** 			{0xDBu, 0x04u},
 391:.\Generated_Source\PSoC4/cyfitter_cfg.c **** 			{0xDCu, 0x09u},
 392:.\Generated_Source\PSoC4/cyfitter_cfg.c **** 			{0xDDu, 0x99u},
 393:.\Generated_Source\PSoC4/cyfitter_cfg.c **** 			{0xDFu, 0x01u},
 394:.\Generated_Source\PSoC4/cyfitter_cfg.c **** 			{0xE0u, 0x40u},
 395:.\Generated_Source\PSoC4/cyfitter_cfg.c **** 			{0xE2u, 0x80u},
 396:.\Generated_Source\PSoC4/cyfitter_cfg.c **** 			{0xE4u, 0x40u},
 397:.\Generated_Source\PSoC4/cyfitter_cfg.c **** 			{0xE5u, 0x40u},
 398:.\Generated_Source\PSoC4/cyfitter_cfg.c **** 			{0xE6u, 0x80u},
 399:.\Generated_Source\PSoC4/cyfitter_cfg.c **** 			{0xE8u, 0x40u},
 400:.\Generated_Source\PSoC4/cyfitter_cfg.c **** 			{0xEAu, 0x50u},
 401:.\Generated_Source\PSoC4/cyfitter_cfg.c **** 			{0xEBu, 0xA8u},
 402:.\Generated_Source\PSoC4/cyfitter_cfg.c **** 			{0xECu, 0x40u},
 403:.\Generated_Source\PSoC4/cyfitter_cfg.c **** 			{0xEDu, 0x20u},
 404:.\Generated_Source\PSoC4/cyfitter_cfg.c **** 			{0xEEu, 0x50u},
 405:.\Generated_Source\PSoC4/cyfitter_cfg.c **** 			{0xEFu, 0xA8u},
 406:.\Generated_Source\PSoC4/cyfitter_cfg.c **** 			{0x02u, 0x40u},
 407:.\Generated_Source\PSoC4/cyfitter_cfg.c **** 			{0x05u, 0x40u},
 408:.\Generated_Source\PSoC4/cyfitter_cfg.c **** 			{0x06u, 0x80u},
 409:.\Generated_Source\PSoC4/cyfitter_cfg.c **** 			{0x0Eu, 0x28u},
 410:.\Generated_Source\PSoC4/cyfitter_cfg.c **** 			{0x10u, 0x02u},
 411:.\Generated_Source\PSoC4/cyfitter_cfg.c **** 			{0x17u, 0x40u},
 412:.\Generated_Source\PSoC4/cyfitter_cfg.c **** 			{0x19u, 0x08u},
 413:.\Generated_Source\PSoC4/cyfitter_cfg.c **** 			{0x1Bu, 0x02u},
ARM GAS  C:\Users\Moses\AppData\Local\Temp\cc6fXAIh.s 			page 14


 414:.\Generated_Source\PSoC4/cyfitter_cfg.c **** 			{0x1Cu, 0x40u},
 415:.\Generated_Source\PSoC4/cyfitter_cfg.c **** 			{0x1Du, 0x82u},
 416:.\Generated_Source\PSoC4/cyfitter_cfg.c **** 			{0x1Eu, 0x28u},
 417:.\Generated_Source\PSoC4/cyfitter_cfg.c **** 			{0x23u, 0x40u},
 418:.\Generated_Source\PSoC4/cyfitter_cfg.c **** 			{0x27u, 0x48u},
 419:.\Generated_Source\PSoC4/cyfitter_cfg.c **** 			{0x29u, 0x08u},
 420:.\Generated_Source\PSoC4/cyfitter_cfg.c **** 			{0x2Au, 0x40u},
 421:.\Generated_Source\PSoC4/cyfitter_cfg.c **** 			{0x2Fu, 0x02u},
 422:.\Generated_Source\PSoC4/cyfitter_cfg.c **** 			{0x3Au, 0x80u},
 423:.\Generated_Source\PSoC4/cyfitter_cfg.c **** 			{0x3Bu, 0x80u},
 424:.\Generated_Source\PSoC4/cyfitter_cfg.c **** 			{0x3Cu, 0x02u},
 425:.\Generated_Source\PSoC4/cyfitter_cfg.c **** 			{0x40u, 0x40u},
 426:.\Generated_Source\PSoC4/cyfitter_cfg.c **** 			{0x41u, 0xA0u},
 427:.\Generated_Source\PSoC4/cyfitter_cfg.c **** 			{0x44u, 0x02u},
 428:.\Generated_Source\PSoC4/cyfitter_cfg.c **** 			{0x45u, 0xA2u},
 429:.\Generated_Source\PSoC4/cyfitter_cfg.c **** 			{0x48u, 0x01u},
 430:.\Generated_Source\PSoC4/cyfitter_cfg.c **** 			{0x4Cu, 0x02u},
 431:.\Generated_Source\PSoC4/cyfitter_cfg.c **** 			{0x4Fu, 0x04u},
 432:.\Generated_Source\PSoC4/cyfitter_cfg.c **** 			{0x54u, 0x03u},
 433:.\Generated_Source\PSoC4/cyfitter_cfg.c **** 			{0x56u, 0x48u},
 434:.\Generated_Source\PSoC4/cyfitter_cfg.c **** 			{0x57u, 0x10u},
 435:.\Generated_Source\PSoC4/cyfitter_cfg.c **** 			{0x5Fu, 0x58u},
 436:.\Generated_Source\PSoC4/cyfitter_cfg.c **** 			{0x63u, 0x30u},
 437:.\Generated_Source\PSoC4/cyfitter_cfg.c **** 			{0x64u, 0x02u},
 438:.\Generated_Source\PSoC4/cyfitter_cfg.c **** 			{0x66u, 0x08u},
 439:.\Generated_Source\PSoC4/cyfitter_cfg.c **** 			{0x67u, 0x04u},
 440:.\Generated_Source\PSoC4/cyfitter_cfg.c **** 			{0xC0u, 0x98u},
 441:.\Generated_Source\PSoC4/cyfitter_cfg.c **** 			{0xC2u, 0x60u},
 442:.\Generated_Source\PSoC4/cyfitter_cfg.c **** 			{0xC4u, 0x81u},
 443:.\Generated_Source\PSoC4/cyfitter_cfg.c **** 			{0xCAu, 0x1Au},
 444:.\Generated_Source\PSoC4/cyfitter_cfg.c **** 			{0xCEu, 0x80u},
 445:.\Generated_Source\PSoC4/cyfitter_cfg.c **** 			{0xD0u, 0xBDu},
 446:.\Generated_Source\PSoC4/cyfitter_cfg.c **** 			{0xD2u, 0x18u},
 447:.\Generated_Source\PSoC4/cyfitter_cfg.c **** 			{0xD6u, 0x70u},
 448:.\Generated_Source\PSoC4/cyfitter_cfg.c **** 			{0xD8u, 0x70u},
 449:.\Generated_Source\PSoC4/cyfitter_cfg.c **** 			{0x38u, 0x20u},
 450:.\Generated_Source\PSoC4/cyfitter_cfg.c **** 			{0x3Au, 0xC0u},
 451:.\Generated_Source\PSoC4/cyfitter_cfg.c **** 			{0x3Eu, 0x10u},
 452:.\Generated_Source\PSoC4/cyfitter_cfg.c **** 			{0x58u, 0x0Bu},
 453:.\Generated_Source\PSoC4/cyfitter_cfg.c **** 			{0x5Cu, 0x09u},
 454:.\Generated_Source\PSoC4/cyfitter_cfg.c **** 			{0x5Fu, 0x01u},
 455:.\Generated_Source\PSoC4/cyfitter_cfg.c **** 			{0x1Du, 0x60u},
 456:.\Generated_Source\PSoC4/cyfitter_cfg.c **** 			{0x7Fu, 0x40u},
 457:.\Generated_Source\PSoC4/cyfitter_cfg.c **** 			{0x89u, 0x20u},
 458:.\Generated_Source\PSoC4/cyfitter_cfg.c **** 			{0x93u, 0x80u},
 459:.\Generated_Source\PSoC4/cyfitter_cfg.c **** 			{0x9Du, 0x40u},
 460:.\Generated_Source\PSoC4/cyfitter_cfg.c **** 			{0xA5u, 0x20u},
 461:.\Generated_Source\PSoC4/cyfitter_cfg.c **** 			{0xAEu, 0x80u},
 462:.\Generated_Source\PSoC4/cyfitter_cfg.c **** 			{0xDEu, 0x80u},
 463:.\Generated_Source\PSoC4/cyfitter_cfg.c **** 			{0x02u, 0x10u},
 464:.\Generated_Source\PSoC4/cyfitter_cfg.c **** 			{0xC0u, 0x10u},
 465:.\Generated_Source\PSoC4/cyfitter_cfg.c **** 			{0xAEu, 0x10u},
 466:.\Generated_Source\PSoC4/cyfitter_cfg.c **** 			{0xE8u, 0x40u},
 467:.\Generated_Source\PSoC4/cyfitter_cfg.c **** 			{0x65u, 0x10u},
 468:.\Generated_Source\PSoC4/cyfitter_cfg.c **** 			{0x67u, 0x80u},
 469:.\Generated_Source\PSoC4/cyfitter_cfg.c **** 			{0x75u, 0x10u},
 470:.\Generated_Source\PSoC4/cyfitter_cfg.c **** 			{0xD8u, 0x01u},
ARM GAS  C:\Users\Moses\AppData\Local\Temp\cc6fXAIh.s 			page 15


 471:.\Generated_Source\PSoC4/cyfitter_cfg.c **** 			{0xDCu, 0x02u},
 472:.\Generated_Source\PSoC4/cyfitter_cfg.c **** 			{0x8Bu, 0x40u},
 473:.\Generated_Source\PSoC4/cyfitter_cfg.c **** 			{0x97u, 0x80u},
 474:.\Generated_Source\PSoC4/cyfitter_cfg.c **** 			{0xE4u, 0x01u},
 475:.\Generated_Source\PSoC4/cyfitter_cfg.c **** 			{0x10u, 0x01u},
 476:.\Generated_Source\PSoC4/cyfitter_cfg.c **** 			{0x11u, 0x01u},
 477:.\Generated_Source\PSoC4/cyfitter_cfg.c **** 		};
 478:.\Generated_Source\PSoC4/cyfitter_cfg.c **** 
 479:.\Generated_Source\PSoC4/cyfitter_cfg.c **** 
 480:.\Generated_Source\PSoC4/cyfitter_cfg.c **** 
 481:.\Generated_Source\PSoC4/cyfitter_cfg.c **** 		CYPACKED typedef struct {
 482:.\Generated_Source\PSoC4/cyfitter_cfg.c **** 			void CYFAR *address;
 483:.\Generated_Source\PSoC4/cyfitter_cfg.c **** 			uint16 size;
 484:.\Generated_Source\PSoC4/cyfitter_cfg.c **** 		} CYPACKED_ATTR cfg_memset_t;
 485:.\Generated_Source\PSoC4/cyfitter_cfg.c **** 
 486:.\Generated_Source\PSoC4/cyfitter_cfg.c **** 		static const cfg_memset_t CYCODE cfg_memset_list [] = {
 487:.\Generated_Source\PSoC4/cyfitter_cfg.c **** 			/* address, size */
 488:.\Generated_Source\PSoC4/cyfitter_cfg.c **** 			{(void CYFAR *)(CYDEV_UDB_P0_U0_BASE), 1024u},
 489:.\Generated_Source\PSoC4/cyfitter_cfg.c **** 			{(void CYFAR *)(CYDEV_UDB_DSI0_BASE), 1024u},
 490:.\Generated_Source\PSoC4/cyfitter_cfg.c **** 		};
 491:.\Generated_Source\PSoC4/cyfitter_cfg.c **** 
 492:.\Generated_Source\PSoC4/cyfitter_cfg.c **** 		uint8 CYDATA i;
 493:.\Generated_Source\PSoC4/cyfitter_cfg.c **** 
 494:.\Generated_Source\PSoC4/cyfitter_cfg.c **** 		/* Zero out critical memory blocks before beginning configuration */
 495:.\Generated_Source\PSoC4/cyfitter_cfg.c **** 		for (i = 0u; i < (sizeof(cfg_memset_list)/sizeof(cfg_memset_list[0])); i++)
 317              		.loc 1 495 0
 318 0078 0024     		mov	r4, #0
 319              	.LBB5:
 496:.\Generated_Source\PSoC4/cyfitter_cfg.c **** 		{
 497:.\Generated_Source\PSoC4/cyfitter_cfg.c **** 			const cfg_memset_t CYCODE * CYDATA ms = &cfg_memset_list[i];
 320              		.loc 1 497 0
 321 007a 304D     		ldr	r5, .L21
 322              	.LBE5:
 495:.\Generated_Source\PSoC4/cyfitter_cfg.c **** 		for (i = 0u; i < (sizeof(cfg_memset_list)/sizeof(cfg_memset_list[0])); i++)
 323              		.loc 1 495 0
 324 007c 0CE0     		b	.L19
 325              	.LVL28:
 326              	.L20:
 327              	.LBB6:
 328              		.loc 1 497 0 discriminator 2
 329 007e 6300     		lsl	r3, r4, #1
 330 0080 1B19     		add	r3, r3, r4
 331 0082 5B00     		lsl	r3, r3, #1
 332 0084 EB18     		add	r3, r5, r3
 333              	.LVL29:
 498:.\Generated_Source\PSoC4/cyfitter_cfg.c **** 			CYMEMZERO(ms->address, (size_t)(uint32)(ms->size));
 334              		.loc 1 498 0 discriminator 2
 335 0086 9988     		ldrh	r1, [r3, #4]
 336 0088 1A88     		ldrh	r2, [r3]
 337 008a 5888     		ldrh	r0, [r3, #2]
 338 008c 0004     		lsl	r0, r0, #16
 339 008e 1043     		orr	r0, r2
 340 0090 FFF7FEFF 		bl	CYMEMZERO
 341              	.LVL30:
 342              	.LBE6:
 495:.\Generated_Source\PSoC4/cyfitter_cfg.c **** 		for (i = 0u; i < (sizeof(cfg_memset_list)/sizeof(cfg_memset_list[0])); i++)
 343              		.loc 1 495 0 discriminator 2
ARM GAS  C:\Users\Moses\AppData\Local\Temp\cc6fXAIh.s 			page 16


 344 0094 0134     		add	r4, r4, #1
 345              	.LVL31:
 346 0096 E4B2     		uxtb	r4, r4
 347              	.LVL32:
 348              	.L19:
 495:.\Generated_Source\PSoC4/cyfitter_cfg.c **** 		for (i = 0u; i < (sizeof(cfg_memset_list)/sizeof(cfg_memset_list[0])); i++)
 349              		.loc 1 495 0 is_stmt 0 discriminator 1
 350 0098 012C     		cmp	r4, #1
 351 009a F0D9     		bls	.L20
 499:.\Generated_Source\PSoC4/cyfitter_cfg.c **** 		}
 500:.\Generated_Source\PSoC4/cyfitter_cfg.c **** 
 501:.\Generated_Source\PSoC4/cyfitter_cfg.c **** 		cfg_write_bytes32(cy_cfg_addr_table, cy_cfg_data_table);
 352              		.loc 1 501 0 is_stmt 1
 353 009c 2749     		ldr	r1, .L21
 354 009e 081C     		mov	r0, r1
 355 00a0 0C30     		add	r0, r0, #12
 356 00a2 3431     		add	r1, r1, #52
 357 00a4 FFF7FEFF 		bl	cfg_write_bytes32
 358              	.LVL33:
 502:.\Generated_Source\PSoC4/cyfitter_cfg.c **** 
 503:.\Generated_Source\PSoC4/cyfitter_cfg.c **** 		/* Perform normal device configuration. Order is not critical for these items. */
 504:.\Generated_Source\PSoC4/cyfitter_cfg.c **** 		CY_SET_XTND_REG16((void CYFAR *)(CYREG_UDB_BCTL0_DRV), 0x0100u);
 359              		.loc 1 504 0
 360 00a8 8022     		mov	r2, #128
 361 00aa 5200     		lsl	r2, r2, #1
 362 00ac 244B     		ldr	r3, .L21+4
 363 00ae 1A80     		strh	r2, [r3]
 505:.\Generated_Source\PSoC4/cyfitter_cfg.c **** 		CY_SET_XTND_REG8((void CYFAR *)(CYREG_UDB_BCTL0_DRV + 0x2u), 0x01u);
 364              		.loc 1 505 0
 365 00b0 0122     		mov	r2, #1
 366 00b2 244B     		ldr	r3, .L21+8
 367 00b4 1A70     		strb	r2, [r3]
 506:.\Generated_Source\PSoC4/cyfitter_cfg.c **** 
 507:.\Generated_Source\PSoC4/cyfitter_cfg.c **** 		/* HSIOM Starting address: CYDEV_HSIOM_BASE */
 508:.\Generated_Source\PSoC4/cyfitter_cfg.c **** 		CY_SET_XTND_REG32((void CYFAR *)(CYREG_HSIOM_PORT_SEL2), 0x00060000u);
 368              		.loc 1 508 0
 369 00b6 C022     		mov	r2, #192
 370 00b8 D202     		lsl	r2, r2, #11
 371 00ba 234B     		ldr	r3, .L21+12
 372 00bc 1A60     		str	r2, [r3]
 509:.\Generated_Source\PSoC4/cyfitter_cfg.c **** 		CY_SET_XTND_REG32((void CYFAR *)(CYREG_HSIOM_PORT_SEL3), 0x0000EE00u);
 373              		.loc 1 509 0
 374 00be EE22     		mov	r2, #238
 375 00c0 1202     		lsl	r2, r2, #8
 376 00c2 224B     		ldr	r3, .L21+16
 377 00c4 1A60     		str	r2, [r3]
 510:.\Generated_Source\PSoC4/cyfitter_cfg.c **** 
 511:.\Generated_Source\PSoC4/cyfitter_cfg.c **** 		/* UDB_PA_0 Starting address: CYDEV_UDB_PA0_BASE */
 512:.\Generated_Source\PSoC4/cyfitter_cfg.c **** 		CY_SET_XTND_REG32((void CYFAR *)(CYDEV_UDB_PA0_BASE), 0x00990004u);
 378              		.loc 1 512 0
 379 00c6 224A     		ldr	r2, .L21+20
 380 00c8 224B     		ldr	r3, .L21+24
 381 00ca 1A60     		str	r2, [r3]
 513:.\Generated_Source\PSoC4/cyfitter_cfg.c **** 		CY_SET_XTND_REG32((void CYFAR *)(CYREG_UDB_PA0_CFG4), 0x00020000u);
 382              		.loc 1 513 0
 383 00cc 8022     		mov	r2, #128
 384 00ce 9202     		lsl	r2, r2, #10
ARM GAS  C:\Users\Moses\AppData\Local\Temp\cc6fXAIh.s 			page 17


 385 00d0 214B     		ldr	r3, .L21+28
 386 00d2 1A60     		str	r2, [r3]
 514:.\Generated_Source\PSoC4/cyfitter_cfg.c **** 
 515:.\Generated_Source\PSoC4/cyfitter_cfg.c **** 		/* UDB_PA_2 Starting address: CYDEV_UDB_PA2_BASE */
 516:.\Generated_Source\PSoC4/cyfitter_cfg.c **** 		CY_SET_XTND_REG32((void CYFAR *)(CYDEV_UDB_PA2_BASE), 0x00990000u);
 387              		.loc 1 516 0
 388 00d4 9923     		mov	r3, #153
 389 00d6 1B04     		lsl	r3, r3, #16
 390 00d8 204A     		ldr	r2, .L21+32
 391 00da 1360     		str	r3, [r2]
 517:.\Generated_Source\PSoC4/cyfitter_cfg.c **** 		CY_SET_XTND_REG32((void CYFAR *)(CYREG_UDB_PA2_CFG8), 0x03000000u);
 392              		.loc 1 517 0
 393 00dc C021     		mov	r1, #192
 394 00de 8904     		lsl	r1, r1, #18
 395 00e0 1F4A     		ldr	r2, .L21+36
 396 00e2 1160     		str	r1, [r2]
 518:.\Generated_Source\PSoC4/cyfitter_cfg.c **** 
 519:.\Generated_Source\PSoC4/cyfitter_cfg.c **** 		/* UDB_PA_3 Starting address: CYDEV_UDB_PA3_BASE */
 520:.\Generated_Source\PSoC4/cyfitter_cfg.c **** 		CY_SET_XTND_REG32((void CYFAR *)(CYDEV_UDB_PA3_BASE), 0x00990000u);
 397              		.loc 1 520 0
 398 00e4 1F4A     		ldr	r2, .L21+40
 399 00e6 1360     		str	r3, [r2]
 521:.\Generated_Source\PSoC4/cyfitter_cfg.c **** 
 522:.\Generated_Source\PSoC4/cyfitter_cfg.c **** 		/* Enable digital routing */
 523:.\Generated_Source\PSoC4/cyfitter_cfg.c **** 		CY_SET_XTND_REG8((void *)CYREG_UDB_UDBIF_BANK_CTL, CY_GET_XTND_REG8((void *)CYREG_UDB_UDBIF_BANK_
 400              		.loc 1 523 0
 401 00e8 1F4B     		ldr	r3, .L21+44
 402 00ea 1978     		ldrb	r1, [r3]
 403 00ec 0222     		mov	r2, #2
 404 00ee 0A43     		orr	r2, r1
 405 00f0 1A70     		strb	r2, [r3]
 524:.\Generated_Source\PSoC4/cyfitter_cfg.c **** 
 525:.\Generated_Source\PSoC4/cyfitter_cfg.c **** 		/* Enable UDB array */
 526:.\Generated_Source\PSoC4/cyfitter_cfg.c **** 		CY_SET_XTND_REG8((void *)CYREG_UDB_UDBIF_WAIT_CFG, (uint8)((CY_GET_XTND_REG8((void *)CYREG_UDB_UD
 406              		.loc 1 526 0
 407 00f2 1E4A     		ldr	r2, .L21+48
 408 00f4 1178     		ldrb	r1, [r2]
 409 00f6 3C20     		mov	r0, #60
 410 00f8 8143     		bic	r1, r0
 411 00fa 1420     		mov	r0, #20
 412 00fc 0143     		orr	r1, r0
 413 00fe 1170     		strb	r1, [r2]
 527:.\Generated_Source\PSoC4/cyfitter_cfg.c **** 		CY_SET_XTND_REG8((void *)CYREG_UDB_UDBIF_BANK_CTL, (uint8)(CY_GET_XTND_REG8((void *)CYREG_UDB_UDB
 414              		.loc 1 527 0
 415 0100 1978     		ldrb	r1, [r3]
 416 0102 1622     		mov	r2, #22
 417 0104 0A43     		orr	r2, r1
 418 0106 1A70     		strb	r2, [r3]
 419              	.LBE4:
 528:.\Generated_Source\PSoC4/cyfitter_cfg.c **** 	}
 529:.\Generated_Source\PSoC4/cyfitter_cfg.c **** 
 530:.\Generated_Source\PSoC4/cyfitter_cfg.c **** 	/* Perform second pass device configuration. These items must be configured in specific order afte
 531:.\Generated_Source\PSoC4/cyfitter_cfg.c **** 	/* IOPINS0_0 Starting address: CYDEV_PRT0_DR */
 532:.\Generated_Source\PSoC4/cyfitter_cfg.c **** 	CY_SET_XTND_REG32((void CYFAR *)(CYREG_PRT0_DR), 0x00000002u);
 420              		.loc 1 532 0
 421 0108 194B     		ldr	r3, .L21+52
 422 010a 0222     		mov	r2, #2
ARM GAS  C:\Users\Moses\AppData\Local\Temp\cc6fXAIh.s 			page 18


 423 010c 1A60     		str	r2, [r3]
 533:.\Generated_Source\PSoC4/cyfitter_cfg.c **** 	CY_SET_XTND_REG32((void CYFAR *)(CYREG_PRT0_PC), 0x00000039u);
 424              		.loc 1 533 0
 425 010e 3922     		mov	r2, #57
 426 0110 184B     		ldr	r3, .L21+56
 427 0112 1A60     		str	r2, [r3]
 534:.\Generated_Source\PSoC4/cyfitter_cfg.c **** 
 535:.\Generated_Source\PSoC4/cyfitter_cfg.c **** 	/* IOPINS0_2 Starting address: CYDEV_PRT2_DR */
 536:.\Generated_Source\PSoC4/cyfitter_cfg.c **** 	CY_SET_XTND_REG32((void CYFAR *)(CYREG_PRT2_DR), 0x00000011u);
 428              		.loc 1 536 0
 429 0114 1122     		mov	r2, #17
 430 0116 184B     		ldr	r3, .L21+60
 431 0118 1A60     		str	r2, [r3]
 537:.\Generated_Source\PSoC4/cyfitter_cfg.c **** 	CY_SET_XTND_REG32((void CYFAR *)(CYREG_PRT2_PC), 0x000001B6u);
 432              		.loc 1 537 0
 433 011a DB22     		mov	r2, #219
 434 011c 5200     		lsl	r2, r2, #1
 435 011e 174B     		ldr	r3, .L21+64
 436 0120 1A60     		str	r2, [r3]
 538:.\Generated_Source\PSoC4/cyfitter_cfg.c **** 	CY_SET_XTND_REG32((void CYFAR *)(CYREG_PRT2_PC2), 0x00000010u);
 437              		.loc 1 538 0
 438 0122 1022     		mov	r2, #16
 439 0124 164B     		ldr	r3, .L21+68
 440 0126 1A60     		str	r2, [r3]
 539:.\Generated_Source\PSoC4/cyfitter_cfg.c **** 
 540:.\Generated_Source\PSoC4/cyfitter_cfg.c **** 	/* IOPINS0_3 Starting address: CYDEV_PRT3_DR */
 541:.\Generated_Source\PSoC4/cyfitter_cfg.c **** 	CY_SET_XTND_REG32((void CYFAR *)(CYREG_PRT3_PC), 0x00000D80u);
 441              		.loc 1 541 0
 442 0128 D822     		mov	r2, #216
 443 012a 1201     		lsl	r2, r2, #4
 444 012c 154B     		ldr	r3, .L21+72
 445 012e 1A60     		str	r2, [r3]
 542:.\Generated_Source\PSoC4/cyfitter_cfg.c **** 
 543:.\Generated_Source\PSoC4/cyfitter_cfg.c **** 	/* Setup clocks based on selections from Clock DWR */
 544:.\Generated_Source\PSoC4/cyfitter_cfg.c **** 	ClockSetup();
 446              		.loc 1 544 0
 447 0130 FFF766FF 		bl	ClockSetup
 448              	.LVL34:
 545:.\Generated_Source\PSoC4/cyfitter_cfg.c **** 
 546:.\Generated_Source\PSoC4/cyfitter_cfg.c **** 	/* Perform basic analog initialization to defaults */
 547:.\Generated_Source\PSoC4/cyfitter_cfg.c **** 	AnalogSetDefault();
 449              		.loc 1 547 0
 450 0134 FFF7FEFF 		bl	AnalogSetDefault
 451              	.LVL35:
 548:.\Generated_Source\PSoC4/cyfitter_cfg.c **** 
 549:.\Generated_Source\PSoC4/cyfitter_cfg.c **** }
 452              		.loc 1 549 0
 453              		@ sp needed
 454              	.LVL36:
 455 0138 38BD     		pop	{r3, r4, r5, pc}
 456              	.L22:
 457 013a C046     		.align	2
 458              	.L21:
 459 013c 00000000 		.word	.LANCHOR0
 460 0140 00600F40 		.word	1074749440
 461 0144 02600F40 		.word	1074749442
 462 0148 08000140 		.word	1073807368
ARM GAS  C:\Users\Moses\AppData\Local\Temp\cc6fXAIh.s 			page 19


 463 014c 0C000140 		.word	1073807372
 464 0150 04009900 		.word	10027012
 465 0154 00500F40 		.word	1074745344
 466 0158 04500F40 		.word	1074745348
 467 015c 20500F40 		.word	1074745376
 468 0160 28500F40 		.word	1074745384
 469 0164 30500F40 		.word	1074745392
 470 0168 00700F40 		.word	1074753536
 471 016c 01700F40 		.word	1074753537
 472 0170 00000440 		.word	1074003968
 473 0174 08000440 		.word	1074003976
 474 0178 00020440 		.word	1074004480
 475 017c 08020440 		.word	1074004488
 476 0180 18020440 		.word	1074004504
 477 0184 08030440 		.word	1074004744
 478              		.cfi_endproc
 479              	.LFE7:
 480              		.size	cyfitter_cfg, .-cyfitter_cfg
 481              		.section	.rodata
 482              		.align	2
 483              		.set	.LANCHOR0,. + 0
 484              		.type	cfg_memset_list.4746, %object
 485              		.size	cfg_memset_list.4746, 12
 486              	cfg_memset_list.4746:
 487 0000 00300F40 		.word	1074737152
 488 0004 0004     		.short	1024
 489 0006 00400F40 		.4byte	1074741248
 490 000a 0004     		.short	1024
 491              		.type	cy_cfg_addr_table.4740, %object
 492              		.size	cy_cfg_addr_table.4740, 40
 493              	cy_cfg_addr_table.4740:
 494 000c 01000F40 		.word	1074724865
 495 0010 56300F40 		.word	1074737238
 496 0014 2B310F40 		.word	1074737451
 497 0018 06320F40 		.word	1074737670
 498 001c 08330F40 		.word	1074737928
 499 0020 02400F40 		.word	1074741250
 500 0024 02410F40 		.word	1074741506
 501 0028 05420F40 		.word	1074741765
 502 002c 03430F40 		.word	1074742019
 503 0030 02600F40 		.word	1074749442
 504              		.type	cy_cfg_data_table.4741, %object
 505              		.size	cy_cfg_data_table.4741, 316
 506              	cy_cfg_data_table.4741:
 507 0034 81       		.byte	-127
 508 0035 77       		.byte	119
 509 0036 02       		.byte	2
 510 0037 01       		.byte	1
 511 0038 25       		.byte	37
 512 0039 01       		.byte	1
 513 003a 2E       		.byte	46
 514 003b 02       		.byte	2
 515 003c 2F       		.byte	47
 516 003d 01       		.byte	1
 517 003e 30       		.byte	48
 518 003f 02       		.byte	2
 519 0040 31       		.byte	49
ARM GAS  C:\Users\Moses\AppData\Local\Temp\cc6fXAIh.s 			page 20


 520 0041 01       		.byte	1
 521 0042 32       		.byte	50
 522 0043 01       		.byte	1
 523 0044 3F       		.byte	63
 524 0045 01       		.byte	1
 525 0046 40       		.byte	64
 526 0047 45       		.byte	69
 527 0048 41       		.byte	65
 528 0049 02       		.byte	2
 529 004a 42       		.byte	66
 530 004b 01       		.byte	1
 531 004c 49       		.byte	73
 532 004d FF       		.byte	-1
 533 004e 4A       		.byte	74
 534 004f FF       		.byte	-1
 535 0050 4B       		.byte	75
 536 0051 FF       		.byte	-1
 537 0052 4D       		.byte	77
 538 0053 A0       		.byte	-96
 539 0054 4F       		.byte	79
 540 0055 01       		.byte	1
 541 0056 50       		.byte	80
 542 0057 18       		.byte	24
 543 0058 58       		.byte	88
 544 0059 04       		.byte	4
 545 005a 59       		.byte	89
 546 005b 04       		.byte	4
 547 005c 5A       		.byte	90
 548 005d 04       		.byte	4
 549 005e 5C       		.byte	92
 550 005f 09       		.byte	9
 551 0060 5D       		.byte	93
 552 0061 09       		.byte	9
 553 0062 5F       		.byte	95
 554 0063 01       		.byte	1
 555 0064 60       		.byte	96
 556 0065 40       		.byte	64
 557 0066 62       		.byte	98
 558 0067 80       		.byte	-128
 559 0068 64       		.byte	100
 560 0069 40       		.byte	64
 561 006a 65       		.byte	101
 562 006b 40       		.byte	64
 563 006c 66       		.byte	102
 564 006d 80       		.byte	-128
 565 006e 68       		.byte	104
 566 006f 40       		.byte	64
 567 0070 6A       		.byte	106
 568 0071 50       		.byte	80
 569 0072 6B       		.byte	107
 570 0073 A8       		.byte	-88
 571 0074 6C       		.byte	108
 572 0075 40       		.byte	64
 573 0076 6D       		.byte	109
 574 0077 20       		.byte	32
 575 0078 6E       		.byte	110
 576 0079 50       		.byte	80
ARM GAS  C:\Users\Moses\AppData\Local\Temp\cc6fXAIh.s 			page 21


 577 007a 6F       		.byte	111
 578 007b A8       		.byte	-88
 579 007c 80       		.byte	-128
 580 007d 04       		.byte	4
 581 007e 82       		.byte	-126
 582 007f 18       		.byte	24
 583 0080 83       		.byte	-125
 584 0081 01       		.byte	1
 585 0082 8E       		.byte	-114
 586 0083 01       		.byte	1
 587 0084 94       		.byte	-108
 588 0085 08       		.byte	8
 589 0086 96       		.byte	-106
 590 0087 04       		.byte	4
 591 0088 98       		.byte	-104
 592 0089 01       		.byte	1
 593 008a AD       		.byte	-83
 594 008b 01       		.byte	1
 595 008c AE       		.byte	-82
 596 008d 03       		.byte	3
 597 008e B0       		.byte	-80
 598 008f 01       		.byte	1
 599 0090 B2       		.byte	-78
 600 0091 10       		.byte	16
 601 0092 B4       		.byte	-76
 602 0093 02       		.byte	2
 603 0094 B5       		.byte	-75
 604 0095 01       		.byte	1
 605 0096 B6       		.byte	-74
 606 0097 0C       		.byte	12
 607 0098 BB       		.byte	-69
 608 0099 03       		.byte	3
 609 009a BE       		.byte	-66
 610 009b 41       		.byte	65
 611 009c BF       		.byte	-65
 612 009d 10       		.byte	16
 613 009e C0       		.byte	-64
 614 009f 45       		.byte	69
 615 00a0 C1       		.byte	-63
 616 00a1 02       		.byte	2
 617 00a2 C2       		.byte	-62
 618 00a3 01       		.byte	1
 619 00a4 C5       		.byte	-59
 620 00a5 0C       		.byte	12
 621 00a6 C6       		.byte	-58
 622 00a7 25       		.byte	37
 623 00a8 C7       		.byte	-57
 624 00a9 0E       		.byte	14
 625 00aa C8       		.byte	-56
 626 00ab 3D       		.byte	61
 627 00ac C9       		.byte	-55
 628 00ad FF       		.byte	-1
 629 00ae CA       		.byte	-54
 630 00af FF       		.byte	-1
 631 00b0 CB       		.byte	-53
 632 00b1 FF       		.byte	-1
 633 00b2 CD       		.byte	-51
ARM GAS  C:\Users\Moses\AppData\Local\Temp\cc6fXAIh.s 			page 22


 634 00b3 AF       		.byte	-81
 635 00b4 CE       		.byte	-50
 636 00b5 07       		.byte	7
 637 00b6 CF       		.byte	-49
 638 00b7 01       		.byte	1
 639 00b8 D0       		.byte	-48
 640 00b9 18       		.byte	24
 641 00ba D4       		.byte	-44
 642 00bb 17       		.byte	23
 643 00bc D8       		.byte	-40
 644 00bd 04       		.byte	4
 645 00be D9       		.byte	-39
 646 00bf 04       		.byte	4
 647 00c0 DA       		.byte	-38
 648 00c1 04       		.byte	4
 649 00c2 DB       		.byte	-37
 650 00c3 04       		.byte	4
 651 00c4 DC       		.byte	-36
 652 00c5 09       		.byte	9
 653 00c6 DD       		.byte	-35
 654 00c7 99       		.byte	-103
 655 00c8 DF       		.byte	-33
 656 00c9 01       		.byte	1
 657 00ca E0       		.byte	-32
 658 00cb 40       		.byte	64
 659 00cc E2       		.byte	-30
 660 00cd 80       		.byte	-128
 661 00ce E4       		.byte	-28
 662 00cf 40       		.byte	64
 663 00d0 E5       		.byte	-27
 664 00d1 40       		.byte	64
 665 00d2 E6       		.byte	-26
 666 00d3 80       		.byte	-128
 667 00d4 E8       		.byte	-24
 668 00d5 40       		.byte	64
 669 00d6 EA       		.byte	-22
 670 00d7 50       		.byte	80
 671 00d8 EB       		.byte	-21
 672 00d9 A8       		.byte	-88
 673 00da EC       		.byte	-20
 674 00db 40       		.byte	64
 675 00dc ED       		.byte	-19
 676 00dd 20       		.byte	32
 677 00de EE       		.byte	-18
 678 00df 50       		.byte	80
 679 00e0 EF       		.byte	-17
 680 00e1 A8       		.byte	-88
 681 00e2 02       		.byte	2
 682 00e3 40       		.byte	64
 683 00e4 05       		.byte	5
 684 00e5 40       		.byte	64
 685 00e6 06       		.byte	6
 686 00e7 80       		.byte	-128
 687 00e8 0E       		.byte	14
 688 00e9 28       		.byte	40
 689 00ea 10       		.byte	16
 690 00eb 02       		.byte	2
ARM GAS  C:\Users\Moses\AppData\Local\Temp\cc6fXAIh.s 			page 23


 691 00ec 17       		.byte	23
 692 00ed 40       		.byte	64
 693 00ee 19       		.byte	25
 694 00ef 08       		.byte	8
 695 00f0 1B       		.byte	27
 696 00f1 02       		.byte	2
 697 00f2 1C       		.byte	28
 698 00f3 40       		.byte	64
 699 00f4 1D       		.byte	29
 700 00f5 82       		.byte	-126
 701 00f6 1E       		.byte	30
 702 00f7 28       		.byte	40
 703 00f8 23       		.byte	35
 704 00f9 40       		.byte	64
 705 00fa 27       		.byte	39
 706 00fb 48       		.byte	72
 707 00fc 29       		.byte	41
 708 00fd 08       		.byte	8
 709 00fe 2A       		.byte	42
 710 00ff 40       		.byte	64
 711 0100 2F       		.byte	47
 712 0101 02       		.byte	2
 713 0102 3A       		.byte	58
 714 0103 80       		.byte	-128
 715 0104 3B       		.byte	59
 716 0105 80       		.byte	-128
 717 0106 3C       		.byte	60
 718 0107 02       		.byte	2
 719 0108 40       		.byte	64
 720 0109 40       		.byte	64
 721 010a 41       		.byte	65
 722 010b A0       		.byte	-96
 723 010c 44       		.byte	68
 724 010d 02       		.byte	2
 725 010e 45       		.byte	69
 726 010f A2       		.byte	-94
 727 0110 48       		.byte	72
 728 0111 01       		.byte	1
 729 0112 4C       		.byte	76
 730 0113 02       		.byte	2
 731 0114 4F       		.byte	79
 732 0115 04       		.byte	4
 733 0116 54       		.byte	84
 734 0117 03       		.byte	3
 735 0118 56       		.byte	86
 736 0119 48       		.byte	72
 737 011a 57       		.byte	87
 738 011b 10       		.byte	16
 739 011c 5F       		.byte	95
 740 011d 58       		.byte	88
 741 011e 63       		.byte	99
 742 011f 30       		.byte	48
 743 0120 64       		.byte	100
 744 0121 02       		.byte	2
 745 0122 66       		.byte	102
 746 0123 08       		.byte	8
 747 0124 67       		.byte	103
ARM GAS  C:\Users\Moses\AppData\Local\Temp\cc6fXAIh.s 			page 24


 748 0125 04       		.byte	4
 749 0126 C0       		.byte	-64
 750 0127 98       		.byte	-104
 751 0128 C2       		.byte	-62
 752 0129 60       		.byte	96
 753 012a C4       		.byte	-60
 754 012b 81       		.byte	-127
 755 012c CA       		.byte	-54
 756 012d 1A       		.byte	26
 757 012e CE       		.byte	-50
 758 012f 80       		.byte	-128
 759 0130 D0       		.byte	-48
 760 0131 BD       		.byte	-67
 761 0132 D2       		.byte	-46
 762 0133 18       		.byte	24
 763 0134 D6       		.byte	-42
 764 0135 70       		.byte	112
 765 0136 D8       		.byte	-40
 766 0137 70       		.byte	112
 767 0138 38       		.byte	56
 768 0139 20       		.byte	32
 769 013a 3A       		.byte	58
 770 013b C0       		.byte	-64
 771 013c 3E       		.byte	62
 772 013d 10       		.byte	16
 773 013e 58       		.byte	88
 774 013f 0B       		.byte	11
 775 0140 5C       		.byte	92
 776 0141 09       		.byte	9
 777 0142 5F       		.byte	95
 778 0143 01       		.byte	1
 779 0144 1D       		.byte	29
 780 0145 60       		.byte	96
 781 0146 7F       		.byte	127
 782 0147 40       		.byte	64
 783 0148 89       		.byte	-119
 784 0149 20       		.byte	32
 785 014a 93       		.byte	-109
 786 014b 80       		.byte	-128
 787 014c 9D       		.byte	-99
 788 014d 40       		.byte	64
 789 014e A5       		.byte	-91
 790 014f 20       		.byte	32
 791 0150 AE       		.byte	-82
 792 0151 80       		.byte	-128
 793 0152 DE       		.byte	-34
 794 0153 80       		.byte	-128
 795 0154 02       		.byte	2
 796 0155 10       		.byte	16
 797 0156 C0       		.byte	-64
 798 0157 10       		.byte	16
 799 0158 AE       		.byte	-82
 800 0159 10       		.byte	16
 801 015a E8       		.byte	-24
 802 015b 40       		.byte	64
 803 015c 65       		.byte	101
 804 015d 10       		.byte	16
ARM GAS  C:\Users\Moses\AppData\Local\Temp\cc6fXAIh.s 			page 25


 805 015e 67       		.byte	103
 806 015f 80       		.byte	-128
 807 0160 75       		.byte	117
 808 0161 10       		.byte	16
 809 0162 D8       		.byte	-40
 810 0163 01       		.byte	1
 811 0164 DC       		.byte	-36
 812 0165 02       		.byte	2
 813 0166 8B       		.byte	-117
 814 0167 40       		.byte	64
 815 0168 97       		.byte	-105
 816 0169 80       		.byte	-128
 817 016a E4       		.byte	-28
 818 016b 01       		.byte	1
 819 016c 10       		.byte	16
 820 016d 01       		.byte	1
 821 016e 11       		.byte	17
 822 016f 01       		.byte	1
 823              		.text
 824              	.Letext0:
 825              		.file 2 "c:\\program files (x86)\\cypress\\psoc creator\\3.2\\psoc creator\\import\\gnu\\arm\\4.8.
 826              		.file 3 ".\\Generated_Source\\PSoC4\\cytypes.h"
 827              		.file 4 ".\\Generated_Source\\PSoC4\\CyLib.h"