ARM GAS  C:\Users\Moses\AppData\Local\Temp\cc3RF2PO.s 			page 1


   1              		.cpu cortex-m0
   2              		.fpu softvfp
   3              		.eabi_attribute 20, 1
   4              		.eabi_attribute 21, 1
   5              		.eabi_attribute 23, 3
   6              		.eabi_attribute 24, 1
   7              		.eabi_attribute 25, 1
   8              		.eabi_attribute 26, 1
   9              		.eabi_attribute 30, 1
  10              		.eabi_attribute 34, 0
  11              		.eabi_attribute 18, 4
  12              		.code	16
  13              		.file	"main.c"
  14              		.text
  15              	.Ltext0:
  16              		.cfi_sections	.debug_frame
  17              		.section	.text.debug,"ax",%progbits
  18              		.align	2
  19              		.global	debug
  20              		.code	16
  21              		.thumb_func
  22              		.type	debug, %function
  23              	debug:
  24              	.LFB33:
  25              		.file 1 ".\\main.c"
   1:.\main.c      **** /* ========================================
   2:.\main.c      ****  *
   3:.\main.c      ****  * Copyright YOUR COMPANY, THE YEAR
   4:.\main.c      ****  * All Rights Reserved
   5:.\main.c      ****  * UNPUBLISHED, LICENSED SOFTWARE.
   6:.\main.c      ****  *
   7:.\main.c      ****  * CONFIDENTIAL AND PROPRIETARY INFORMATION
   8:.\main.c      ****  * WHICH IS THE PROPERTY OF your company.
   9:.\main.c      ****  *
  10:.\main.c      ****  * ========================================
  11:.\main.c      **** */
  12:.\main.c      **** #include <project.h>
  13:.\main.c      **** #include <stdio.h>
  14:.\main.c      **** #include "bq2002.h"
  15:.\main.c      **** 
  16:.\main.c      **** CY_ISR(debug)
  17:.\main.c      **** {
  26              		.loc 1 17 0
  27              		.cfi_startproc
  28 0000 08B5     		push	{r3, lr}
  29              		.cfi_def_cfa_offset 8
  30              		.cfi_offset 3, -8
  31              		.cfi_offset 14, -4
  18:.\main.c      ****     TCPWM_ClearInterrupt(TCPWM_INTR_MASK_CC_MATCH);
  32              		.loc 1 18 0
  33 0002 0220     		mov	r0, #2
  34 0004 FFF7FEFF 		bl	TCPWM_ClearInterrupt
  35              	.LVL0:
  19:.\main.c      ****     UART_1_UartPutString("Hello\r\n");
  36              		.loc 1 19 0
  37 0008 0148     		ldr	r0, .L2
  38 000a FFF7FEFF 		bl	UART_1_UartPutString
ARM GAS  C:\Users\Moses\AppData\Local\Temp\cc3RF2PO.s 			page 2


  39              	.LVL1:
  20:.\main.c      **** }
  40              		.loc 1 20 0
  41              		@ sp needed
  42 000e 08BD     		pop	{r3, pc}
  43              	.L3:
  44              		.align	2
  45              	.L2:
  46 0010 00000000 		.word	.LC0
  47              		.cfi_endproc
  48              	.LFE33:
  49              		.size	debug, .-debug
  50              		.section	.text.main,"ax",%progbits
  51              		.align	2
  52              		.global	main
  53              		.code	16
  54              		.thumb_func
  55              		.type	main, %function
  56              	main:
  57              	.LFB34:
  21:.\main.c      **** 
  22:.\main.c      **** int main()
  23:.\main.c      **** {
  58              		.loc 1 23 0
  59              		.cfi_startproc
  60 0000 30B5     		push	{r4, r5, lr}
  61              		.cfi_def_cfa_offset 12
  62              		.cfi_offset 4, -12
  63              		.cfi_offset 5, -8
  64              		.cfi_offset 14, -4
  65 0002 83B0     		sub	sp, sp, #12
  66              		.cfi_def_cfa_offset 24
  24:.\main.c      **** 
  25:.\main.c      ****     UART_1_Start();
  67              		.loc 1 25 0
  68 0004 FFF7FEFF 		bl	UART_1_Start
  69              	.LVL2:
  26:.\main.c      ****     isr_1_StartEx(debug);
  70              		.loc 1 26 0
  71 0008 0E48     		ldr	r0, .L6
  72 000a FFF7FEFF 		bl	isr_1_StartEx
  73              	.LVL3:
  27:.\main.c      ****     PWM_1_Start();
  74              		.loc 1 27 0
  75 000e FFF7FEFF 		bl	PWM_1_Start
  76              	.LVL4:
  28:.\main.c      ****     CyGlobalIntEnable; /* Enable global interrupts. */
  77              		.loc 1 28 0
  78              	@ 28 ".\main.c" 1
  79 0012 62B6     		CPSIE   i
  80              	@ 0 "" 2
  29:.\main.c      **** 
  30:.\main.c      ****     /* Place your initialization/startup code here (e.g. MyInst_Start()) */
  31:.\main.c      ****     IDAC_1_Start();
  81              		.loc 1 31 0
  82              		.code	16
  83 0014 FFF7FEFF 		bl	IDAC_1_Start
ARM GAS  C:\Users\Moses\AppData\Local\Temp\cc3RF2PO.s 			page 3


  84              	.LVL5:
  32:.\main.c      ****     uint8_t IDAC_VAL = 0;
  33:.\main.c      ****     
  34:.\main.c      ****     TCPWM_TriggerCommand(TCPWM_MASK, TCPWM_CMD_START);
  85              		.loc 1 34 0
  86 0018 0120     		mov	r0, #1
  87 001a 1821     		mov	r1, #24
  88 001c FFF7FEFF 		bl	TCPWM_TriggerCommand
  89              	.LVL6:
  90              	.LBB2:
  35:.\main.c      ****     
  36:.\main.c      ****     for(;;)
  37:.\main.c      ****     {
  38:.\main.c      ****         /* Place your application code here. */
  39:.\main.c      ****         //TM_Mode_SetMode((TM_Mode_GetMode() + 1) % 3);
  40:.\main.c      ****         
  41:.\main.c      ****         //TCPWM_TriggerCommand(TCPWM_MASK, TCPWM_CMD_RELOAD);
  42:.\main.c      ****         //TCPWM_TriggerCommand(TCPWM_MASK, TCPWM_CMD_START);
  43:.\main.c      ****         
  44:.\main.c      ****         //CyDelay(130);
  45:.\main.c      ****         
  46:.\main.c      ****        // TCPWM_TriggerCommand(TCPWM_MASK, TCPWM_CMD_STOP);
  47:.\main.c      ****         
  48:.\main.c      ****         uint16 pulse_width = TCPWM_ReadCapture();
  49:.\main.c      ****         
  50:.\main.c      ****         char uart_message[5];
  51:.\main.c      ****         sprintf(uart_message, "%d\r\n", pulse_width);
  91              		.loc 1 51 0
  92 0020 094D     		ldr	r5, .L6+4
  52:.\main.c      ****         
  53:.\main.c      ****         UART_1_UartPutString(uart_message);
  54:.\main.c      ****         CyDelay(2000);
  93              		.loc 1 54 0
  94 0022 FA24     		mov	r4, #250
  95 0024 E400     		lsl	r4, r4, #3
  96              	.L5:
  48:.\main.c      ****         uint16 pulse_width = TCPWM_ReadCapture();
  97              		.loc 1 48 0 discriminator 1
  98 0026 FFF7FEFF 		bl	TCPWM_ReadCapture
  99              	.LVL7:
 100 002a 0204     		lsl	r2, r0, #16
 101 002c 120C     		lsr	r2, r2, #16
  51:.\main.c      ****         sprintf(uart_message, "%d\r\n", pulse_width);
 102              		.loc 1 51 0 discriminator 1
 103 002e 6846     		mov	r0, sp
 104              	.LVL8:
 105 0030 291C     		mov	r1, r5
 106 0032 FFF7FEFF 		bl	sprintf
 107              	.LVL9:
  53:.\main.c      ****         UART_1_UartPutString(uart_message);
 108              		.loc 1 53 0 discriminator 1
 109 0036 6846     		mov	r0, sp
 110 0038 FFF7FEFF 		bl	UART_1_UartPutString
 111              	.LVL10:
 112              		.loc 1 54 0 discriminator 1
 113 003c 201C     		mov	r0, r4
 114 003e FFF7FEFF 		bl	CyDelay
ARM GAS  C:\Users\Moses\AppData\Local\Temp\cc3RF2PO.s 			page 4


 115              	.LVL11:
 116 0042 F0E7     		b	.L5
 117              	.L7:
 118              		.align	2
 119              	.L6:
 120 0044 00000000 		.word	debug
 121 0048 08000000 		.word	.LC3
 122              	.LBE2:
 123              		.cfi_endproc
 124              	.LFE34:
 125              		.size	main, .-main
 126              		.section	.rodata.str1.4,"aMS",%progbits,1
 127              		.align	2
 128              	.LC0:
 129 0000 48656C6C 		.ascii	"Hello\015\012\000"
 129      6F0D0A00 
 130              	.LC3:
 131 0008 25640D0A 		.ascii	"%d\015\012\000"
 131      00
 132 000d 000000   		.text
 133              	.Letext0:
 134              		.file 2 "c:\\program files (x86)\\cypress\\psoc creator\\3.2\\psoc creator\\import\\gnu\\arm\\4.8.
 135              		.file 3 "c:\\program files (x86)\\cypress\\psoc creator\\3.2\\psoc creator\\import\\gnu\\arm\\4.8.
 136              		.file 4 "Generated_Source\\PSoC4/cytypes.h"
 137              		.file 5 "Generated_Source\\PSoC4/TCPWM.h"
 138              		.file 6 "Generated_Source\\PSoC4/UART_1_SPI_UART.h"
 139              		.file 7 "Generated_Source\\PSoC4/CyLib.h"
 140              		.file 8 "Generated_Source\\PSoC4/isr_1.h"
 141              		.file 9 "Generated_Source\\PSoC4/UART_1.h"
 142              		.file 10 "Generated_Source\\PSoC4/PWM_1.h"
 143              		.file 11 "Generated_Source\\PSoC4/IDAC_1.h"
 144              		.file 12 "c:\\program files (x86)\\cypress\\psoc creator\\3.2\\psoc creator\\import\\gnu\\arm\\4.8